(iTree_Model
Tree
p0
(dp1
S'binMax'
p2
(lp3
cnumpy.core.multiarray
scalar
p4
(cnumpy
dtype
p5
(S'f8'
p6
I0
I1
tp7
Rp8
(I3
S'<'
p9
NNNI-1
I-1
I0
tp10
bS'\x9a\x99\x99\x99\x99\x99\xe9?'
p11
tp12
Rp13
ag4
(g8
S'\x9a\x99\x99\x99\x99\x99\xf9?'
p14
tp15
Rp16
ag4
(g8
S'433333\x03@'
p17
tp18
Rp19
ag4
(g8
S'\x9a\x99\x99\x99\x99\x99\t@'
p20
tp21
Rp22
ag4
(g8
S'ffffff\x10@'
p23
tp24
Rp25
asS'binMin'
p26
(lp27
g4
(g8
S'\x00\x00\x00\x00\x00\x00\x00\x00'
p28
tp29
Rp30
ag4
(g8
S'\x9a\x99\x99\x99\x99\x99\xe9?'
p31
tp32
Rp33
ag4
(g8
S'\x9a\x99\x99\x99\x99\x99\xf9?'
p34
tp35
Rp36
ag4
(g8
S'433333\x03@'
p37
tp38
Rp39
ag4
(g8
S'\x9a\x99\x99\x99\x99\x99\t@'
p40
tp41
Rp42
asS'name'
p43
g4
(g5
(S'S6'
p44
I0
I1
tp45
Rp46
(I3
S'|'
p47
NNNI6
I1
I0
tp48
bS'Colour'
p49
tp50
Rp51
sS'val'
p52
NsS'children'
p53
(lp54
(iTree_Model
Tree
p55
(dp56
g2
(lp57
g4
(g8
S'fffff&C@'
p58
tp59
Rp60
ag4
(g8
S'\xcd\xcc\xcc\xcc\xcc\xccJ@'
p61
tp62
Rp63
ag4
(g8
S'\x9a\x99\x99\x99\x999Q@'
p64
tp65
Rp66
ag4
(g8
S'\xcd\xcc\xcc\xcc\xcc\x0cU@'
p67
tp68
Rp69
ag4
(g8
S'fffff\xe6X@'
p70
tp71
Rp72
asg26
(lp73
g4
(g8
S'\x00\x00\x00\x00\x00\x007@'
p74
tp75
Rp76
ag4
(g8
S'fffff&C@'
p77
tp78
Rp79
ag4
(g8
S'\xcd\xcc\xcc\xcc\xcc\xccJ@'
p80
tp81
Rp82
ag4
(g8
S'\x9a\x99\x99\x99\x999Q@'
p83
tp84
Rp85
ag4
(g8
S'\xcd\xcc\xcc\xcc\xcc\x0cU@'
p86
tp87
Rp88
asg43
g4
(g5
(S'S22'
p89
I0
I1
tp90
Rp91
(I3
S'|'
p92
NNNI22
I1
I0
tp93
bS'Breakdown Voltage (kV)'
p94
tp95
Rp96
sg52
Nsg53
(lp97
(iTree_Model
Tree
p98
(dp99
g2
(lp100
sg26
(lp101
sg43
g4
(g5
(S'S24'
p102
I0
I1
tp103
Rp104
(I3
S'|'
p105
NNNI24
I1
I0
tp106
bS'Interfacial Tensio-Class'
p107
tp108
Rp109
sg52
g4
(g5
(S'S1'
p110
I0
I1
tp111
Rp112
(I3
S'|'
p113
NNNI1
I1
I0
tp114
bS'G'
p115
tp116
Rp117
sg53
(lp118
sba(iTree_Model
Tree
p119
(dp120
g2
(lp121
sg26
(lp122
sg43
g4
(g5
(S'S24'
p123
I0
I1
tp124
Rp125
(I3
S'|'
p126
NNNI24
I1
I0
tp127
bS'Interfacial Tensio-Class'
p128
tp129
Rp130
sg52
g4
(g5
(S'S1'
p131
I0
I1
tp132
Rp133
(I3
S'|'
p134
NNNI1
I1
I0
tp135
bg115
tp136
Rp137
sg53
(lp138
sba(iTree_Model
Tree
p139
(dp140
g2
(lp141
sg26
(lp142
sg43
g4
(g5
(S'S24'
p143
I0
I1
tp144
Rp145
(I3
S'|'
p146
NNNI24
I1
I0
tp147
bS'Interfacial Tensio-Class'
p148
tp149
Rp150
sg52
g4
(g5
(S'S1'
p151
I0
I1
tp152
Rp153
(I3
S'|'
p154
NNNI1
I1
I0
tp155
bg115
tp156
Rp157
sg53
(lp158
sba(iTree_Model
Tree
p159
(dp160
g2
(lp161
g4
(g8
S'F%u\x02\x9a\x08\x8b?'
p162
tp163
Rp164
ag4
(g8
S'(\xa0\x89\xb0\xe1\xe9\x95?'
p165
tp166
Rp167
ag4
(g8
S'\xad\xad\xd8_vO\x9e?'
p168
tp169
Rp170
ag4
(g8
S'\x98\xdd\x93\x87\x85Z\xa3?'
p171
tp172
Rp173
ag4
(g8
S'\xe4\xa5\x9b\xc4 \xb0\xc2?'
p174
tp175
Rp176
asg26
(lp177
g4
(g8
S'{\x14\xaeG\xe1zt?'
p178
tp179
Rp180
ag4
(g8
S'F%u\x02\x9a\x08\x8b?'
p181
tp182
Rp183
ag4
(g8
S'(\xa0\x89\xb0\xe1\xe9\x95?'
p184
tp185
Rp186
ag4
(g8
S'\xad\xad\xd8_vO\x9e?'
p187
tp188
Rp189
ag4
(g8
S'\x98\xdd\x93\x87\x85Z\xa3?'
p190
tp191
Rp192
asg43
g4
(g5
(S'S28'
p193
I0
I1
tp194
Rp195
(I3
S'|'
p196
NNNI28
I1
I0
tp197
bS'Total Acid Number (mgKOH/ g)'
p198
tp199
Rp200
sg52
Nsg53
(lp201
(iTree_Model
Tree
p202
(dp203
g2
(lp204
g4
(g8
S'\x00\x00\x00\x00\x00\x00\x10@'
p205
tp206
Rp207
ag4
(g8
S'\x00\x00\x00\x00\x00\x00\x1c@'
p208
tp209
Rp210
ag4
(g8
S'\x00\x00\x00\x00\x00\x00$@'
p211
tp212
Rp213
ag4
(g8
S'\x00\x00\x00\x00\x00\x00*@'
p214
tp215
Rp216
ag4
(g8
S'\x9a\x99\x99\x99\x99\x190@'
p217
tp218
Rp219
asg26
(lp220
g4
(g8
S'\x00\x00\x00\x00\x00\x00\xf0?'
p221
tp222
Rp223
ag4
(g8
S'\x00\x00\x00\x00\x00\x00\x10@'
p224
tp225
Rp226
ag4
(g8
S'\x00\x00\x00\x00\x00\x00\x1c@'
p227
tp228
Rp229
ag4
(g8
S'\x00\x00\x00\x00\x00\x00$@'
p230
tp231
Rp232
ag4
(g8
S'\x00\x00\x00\x00\x00\x00*@'
p233
tp234
Rp235
asg43
g4
(g5
(S'S28'
p236
I0
I1
tp237
Rp238
(I3
S'|'
p239
NNNI28
I1
I0
tp240
bS'Water content measured (ppm)'
p241
tp242
Rp243
sg52
Nsg53
(lp244
(iTree_Model
Tree
p245
(dp246
g2
(lp247
g4
(g8
S'\x88\x85Z\xd3\xbc\xe3\x84?'
p248
tp249
Rp250
ag4
(g8
S'\xe8j+\xf6\x97\xdd\x93?'
p251
tp252
Rp253
ag4
(g8
S'\x0c\x93\xa9\x82QI\x9d?'
p254
tp255
Rp256
ag4
(g8
S'\x98\xdd\x93\x87\x85Z\xa3?'
p257
tp258
Rp259
ag4
(g8
S'8\x89A`\xe5\xd0\xc2?'
p260
tp261
Rp262
asg26
(lp263
g4
(g8
S'\xfc\xa9\xf1\xd2MbP?'
p264
tp265
Rp266
ag4
(g8
S'\x88\x85Z\xd3\xbc\xe3\x84?'
p267
tp268
Rp269
ag4
(g8
S'\xe8j+\xf6\x97\xdd\x93?'
p270
tp271
Rp272
ag4
(g8
S'\x0c\x93\xa9\x82QI\x9d?'
p273
tp274
Rp275
ag4
(g8
S'\x98\xdd\x93\x87\x85Z\xa3?'
p276
tp277
Rp278
asg43
g4
(g5
(S'S19'
p279
I0
I1
tp280
Rp281
(I3
S'|'
p282
NNNI19
I1
I0
tp283
bS'Dissipation Factor '
p284
tp285
Rp286
sg52
Nsg53
(lp287
(iTree_Model
Tree
p288
(dp289
g2
(lp290
sg26
(lp291
sg43
g4
(g5
(S'S24'
p292
I0
I1
tp293
Rp294
(I3
S'|'
p295
NNNI24
I1
I0
tp296
bS'Interfacial Tensio-Class'
p297
tp298
Rp299
sg52
g4
(g5
(S'S1'
p300
I0
I1
tp301
Rp302
(I3
S'|'
p303
NNNI1
I1
I0
tp304
bg115
tp305
Rp306
sg53
(lp307
sba(iTree_Model
Tree
p308
(dp309
g2
(lp310
sg26
(lp311
sg43
g4
(g5
(S'S24'
p312
I0
I1
tp313
Rp314
(I3
S'|'
p315
NNNI24
I1
I0
tp316
bS'Interfacial Tensio-Class'
p317
tp318
Rp319
sg52
g4
(g5
(S'S1'
p320
I0
I1
tp321
Rp322
(I3
S'|'
p323
NNNI1
I1
I0
tp324
bg115
tp325
Rp326
sg53
(lp327
sba(iTree_Model
Tree
p328
(dp329
g2
(lp330
sg26
(lp331
sg43
g4
(g5
(S'S24'
p332
I0
I1
tp333
Rp334
(I3
S'|'
p335
NNNI24
I1
I0
tp336
bS'Interfacial Tensio-Class'
p337
tp338
Rp339
sg52
g4
(g5
(S'S1'
p340
I0
I1
tp341
Rp342
(I3
S'|'
p343
NNNI1
I1
I0
tp344
bg115
tp345
Rp346
sg53
(lp347
sba(iTree_Model
Tree
p348
(dp349
g2
(lp350
sg26
(lp351
sg43
g4
(g5
(S'S24'
p352
I0
I1
tp353
Rp354
(I3
S'|'
p355
NNNI24
I1
I0
tp356
bS'Interfacial Tensio-Class'
p357
tp358
Rp359
sg52
g4
(g5
(S'S1'
p360
I0
I1
tp361
Rp362
(I3
S'|'
p363
NNNI1
I1
I0
tp364
bg115
tp365
Rp366
sg53
(lp367
sba(iTree_Model
Tree
p368
(dp369
g2
(lp370
sg26
(lp371
sg43
g4
(g5
(S'S24'
p372
I0
I1
tp373
Rp374
(I3
S'|'
p375
NNNI24
I1
I0
tp376
bS'Interfacial Tensio-Class'
p377
tp378
Rp379
sg52
g4
(g5
(S'S1'
p380
I0
I1
tp381
Rp382
(I3
S'|'
p383
NNNI1
I1
I0
tp384
bg115
tp385
Rp386
sg53
(lp387
sbasba(iTree_Model
Tree
p388
(dp389
g2
(lp390
g4
(g8
S'\xa2g\xb3\xeas\xb5\x85?'
p391
tp392
Rp393
ag4
(g8
S'\x02M\x84\rO\xaf\x94?'
p394
tp395
Rp396
ag4
(g8
S'3\xe6\xae%\xe4\x83\x9e?'
p397
tp398
Rp399
ag4
(g8
S'\xb2\xbf\xec\x9e<,\xa4?'
p400
tp401
Rp402
ag4
(g8
S'\xe0O\x8d\x97n\x12\xc3?'
p403
tp404
Rp405
asg26
(lp406
g4
(g8
S'\xfc\xa9\xf1\xd2MbP?'
p407
tp408
Rp409
ag4
(g8
S'\xa2g\xb3\xeas\xb5\x85?'
p410
tp411
Rp412
ag4
(g8
S'\x02M\x84\rO\xaf\x94?'
p413
tp414
Rp415
ag4
(g8
S'3\xe6\xae%\xe4\x83\x9e?'
p416
tp417
Rp418
ag4
(g8
S'\xb2\xbf\xec\x9e<,\xa4?'
p419
tp420
Rp421
asg43
g4
(g5
(S'S19'
p422
I0
I1
tp423
Rp424
(I3
S'|'
p425
NNNI19
I1
I0
tp426
bS'Dissipation Factor '
p427
tp428
Rp429
sg52
Nsg53
(lp430
(iTree_Model
Tree
p431
(dp432
g2
(lp433
sg26
(lp434
sg43
g4
(g5
(S'S24'
p435
I0
I1
tp436
Rp437
(I3
S'|'
p438
NNNI24
I1
I0
tp439
bS'Interfacial Tensio-Class'
p440
tp441
Rp442
sg52
g4
(g5
(S'S1'
p443
I0
I1
tp444
Rp445
(I3
S'|'
p446
NNNI1
I1
I0
tp447
bg115
tp448
Rp449
sg53
(lp450
sba(iTree_Model
Tree
p451
(dp452
g2
(lp453
sg26
(lp454
sg43
g4
(g5
(S'S24'
p455
I0
I1
tp456
Rp457
(I3
S'|'
p458
NNNI24
I1
I0
tp459
bS'Interfacial Tensio-Class'
p460
tp461
Rp462
sg52
g4
(g5
(S'S1'
p463
I0
I1
tp464
Rp465
(I3
S'|'
p466
NNNI1
I1
I0
tp467
bg115
tp468
Rp469
sg53
(lp470
sba(iTree_Model
Tree
p471
(dp472
g2
(lp473
sg26
(lp474
sg43
g4
(g5
(S'S24'
p475
I0
I1
tp476
Rp477
(I3
S'|'
p478
NNNI24
I1
I0
tp479
bS'Interfacial Tensio-Class'
p480
tp481
Rp482
sg52
g4
(g5
(S'S1'
p483
I0
I1
tp484
Rp485
(I3
S'|'
p486
NNNI1
I1
I0
tp487
bg115
tp488
Rp489
sg53
(lp490
sba(iTree_Model
Tree
p491
(dp492
g2
(lp493
sg26
(lp494
sg43
g4
(g5
(S'S24'
p495
I0
I1
tp496
Rp497
(I3
S'|'
p498
NNNI24
I1
I0
tp499
bS'Interfacial Tensio-Class'
p500
tp501
Rp502
sg52
g4
(g5
(S'S1'
p503
I0
I1
tp504
Rp505
(I3
S'|'
p506
NNNI1
I1
I0
tp507
bg115
tp508
Rp509
sg53
(lp510
sba(iTree_Model
Tree
p511
(dp512
g2
(lp513
sg26
(lp514
sg43
g4
(g5
(S'S24'
p515
I0
I1
tp516
Rp517
(I3
S'|'
p518
NNNI24
I1
I0
tp519
bS'Interfacial Tensio-Class'
p520
tp521
Rp522
sg52
g4
(g5
(S'S1'
p523
I0
I1
tp524
Rp525
(I3
S'|'
p526
NNNI1
I1
I0
tp527
bg115
tp528
Rp529
sg53
(lp530
sbasba(iTree_Model
Tree
p531
(dp532
g2
(lp533
g4
(g8
S'\xad\xd8_vO\x1ev?'
p534
tp535
Rp536
ag4
(g8
S'n\xa3\x01\xbc\x05\x12\x84?'
p537
tp538
Rp539
ag4
(g8
S'\x84Z\xd3\xbc\xe3\x14\x8d?'
p540
tp541
Rp542
ag4
(g8
S'\xce\x88\xd2\xde\xe0\x0b\x93?'
p543
tp544
Rp545
ag4
(g8
S'\xb0rh\x91\xed|\xbf?'
p546
tp547
Rp548
asg26
(lp549
g4
(g8
S'\xfc\xa9\xf1\xd2MbP?'
p550
tp551
Rp552
ag4
(g8
S'\xad\xd8_vO\x1ev?'
p553
tp554
Rp555
ag4
(g8
S'n\xa3\x01\xbc\x05\x12\x84?'
p556
tp557
Rp558
ag4
(g8
S'\x84Z\xd3\xbc\xe3\x14\x8d?'
p559
tp560
Rp561
ag4
(g8
S'\xce\x88\xd2\xde\xe0\x0b\x93?'
p562
tp563
Rp564
asg43
g4
(g5
(S'S19'
p565
I0
I1
tp566
Rp567
(I3
S'|'
p568
NNNI19
I1
I0
tp569
bS'Dissipation Factor '
p570
tp571
Rp572
sg52
Nsg53
(lp573
(iTree_Model
Tree
p574
(dp575
g2
(lp576
sg26
(lp577
sg43
g4
(g5
(S'S24'
p578
I0
I1
tp579
Rp580
(I3
S'|'
p581
NNNI24
I1
I0
tp582
bS'Interfacial Tensio-Class'
p583
tp584
Rp585
sg52
g4
(g5
(S'S1'
p586
I0
I1
tp587
Rp588
(I3
S'|'
p589
NNNI1
I1
I0
tp590
bg115
tp591
Rp592
sg53
(lp593
sba(iTree_Model
Tree
p594
(dp595
g2
(lp596
sg26
(lp597
sg43
g4
(g5
(S'S24'
p598
I0
I1
tp599
Rp600
(I3
S'|'
p601
NNNI24
I1
I0
tp602
bS'Interfacial Tensio-Class'
p603
tp604
Rp605
sg52
g4
(g5
(S'S1'
p606
I0
I1
tp607
Rp608
(I3
S'|'
p609
NNNI1
I1
I0
tp610
bg115
tp611
Rp612
sg53
(lp613
sba(iTree_Model
Tree
p614
(dp615
g2
(lp616
sg26
(lp617
sg43
g4
(g5
(S'S24'
p618
I0
I1
tp619
Rp620
(I3
S'|'
p621
NNNI24
I1
I0
tp622
bS'Interfacial Tensio-Class'
p623
tp624
Rp625
sg52
g4
(g5
(S'S1'
p626
I0
I1
tp627
Rp628
(I3
S'|'
p629
NNNI1
I1
I0
tp630
bg115
tp631
Rp632
sg53
(lp633
sba(iTree_Model
Tree
p634
(dp635
g2
(lp636
sg26
(lp637
sg43
g4
(g5
(S'S24'
p638
I0
I1
tp639
Rp640
(I3
S'|'
p641
NNNI24
I1
I0
tp642
bS'Interfacial Tensio-Class'
p643
tp644
Rp645
sg52
g4
(g5
(S'S1'
p646
I0
I1
tp647
Rp648
(I3
S'|'
p649
NNNI1
I1
I0
tp650
bg115
tp651
Rp652
sg53
(lp653
sba(iTree_Model
Tree
p654
(dp655
g2
(lp656
sg26
(lp657
sg43
g4
(g5
(S'S24'
p658
I0
I1
tp659
Rp660
(I3
S'|'
p661
NNNI24
I1
I0
tp662
bS'Interfacial Tensio-Class'
p663
tp664
Rp665
sg52
g4
(g5
(S'S1'
p666
I0
I1
tp667
Rp668
(I3
S'|'
p669
NNNI1
I1
I0
tp670
bg115
tp671
Rp672
sg53
(lp673
sbasba(iTree_Model
Tree
p674
(dp675
g2
(lp676
g4
(g8
S'"\xfd\xf6u\xe0\x9c\x81?'
p677
tp678
Rp679
ag4
(g8
S'\xc5\x8f1w-!\x8f?'
p680
tp681
Rp682
ag4
(g8
S'4\x116<\xbdR\x96?'
p683
tp684
Rp685
ag4
(g8
S'\x86Z\xd3\xbc\xe3\x14\x9d?'
p686
tp687
Rp688
ag4
(g8
S'H\xe1z\x14\xaeG\xc1?'
p689
tp690
Rp691
asg26
(lp692
g4
(g8
S'\xfc\xa9\xf1\xd2Mb`?'
p693
tp694
Rp695
ag4
(g8
S'"\xfd\xf6u\xe0\x9c\x81?'
p696
tp697
Rp698
ag4
(g8
S'\xc5\x8f1w-!\x8f?'
p699
tp700
Rp701
ag4
(g8
S'4\x116<\xbdR\x96?'
p702
tp703
Rp704
ag4
(g8
S'\x86Z\xd3\xbc\xe3\x14\x9d?'
p705
tp706
Rp707
asg43
g4
(g5
(S'S19'
p708
I0
I1
tp709
Rp710
(I3
S'|'
p711
NNNI19
I1
I0
tp712
bS'Dissipation Factor '
p713
tp714
Rp715
sg52
Nsg53
(lp716
(iTree_Model
Tree
p717
(dp718
g2
(lp719
sg26
(lp720
sg43
g4
(g5
(S'S24'
p721
I0
I1
tp722
Rp723
(I3
S'|'
p724
NNNI24
I1
I0
tp725
bS'Interfacial Tensio-Class'
p726
tp727
Rp728
sg52
g4
(g5
(S'S1'
p729
I0
I1
tp730
Rp731
(I3
S'|'
p732
NNNI1
I1
I0
tp733
bg115
tp734
Rp735
sg53
(lp736
sba(iTree_Model
Tree
p737
(dp738
g2
(lp739
sg26
(lp740
sg43
g4
(g5
(S'S24'
p741
I0
I1
tp742
Rp743
(I3
S'|'
p744
NNNI24
I1
I0
tp745
bS'Interfacial Tensio-Class'
p746
tp747
Rp748
sg52
g4
(g5
(S'S1'
p749
I0
I1
tp750
Rp751
(I3
S'|'
p752
NNNI1
I1
I0
tp753
bg115
tp754
Rp755
sg53
(lp756
sba(iTree_Model
Tree
p757
(dp758
g2
(lp759
sg26
(lp760
sg43
g4
(g5
(S'S24'
p761
I0
I1
tp762
Rp763
(I3
S'|'
p764
NNNI24
I1
I0
tp765
bS'Interfacial Tensio-Class'
p766
tp767
Rp768
sg52
g4
(g5
(S'S1'
p769
I0
I1
tp770
Rp771
(I3
S'|'
p772
NNNI1
I1
I0
tp773
bg115
tp774
Rp775
sg53
(lp776
sba(iTree_Model
Tree
p777
(dp778
g2
(lp779
sg26
(lp780
sg43
g4
(g5
(S'S24'
p781
I0
I1
tp782
Rp783
(I3
S'|'
p784
NNNI24
I1
I0
tp785
bS'Interfacial Tensio-Class'
p786
tp787
Rp788
sg52
g4
(g5
(S'S1'
p789
I0
I1
tp790
Rp791
(I3
S'|'
p792
NNNI1
I1
I0
tp793
bg115
tp794
Rp795
sg53
(lp796
sba(iTree_Model
Tree
p797
(dp798
g2
(lp799
sg26
(lp800
sg43
g4
(g5
(S'S24'
p801
I0
I1
tp802
Rp803
(I3
S'|'
p804
NNNI24
I1
I0
tp805
bS'Interfacial Tensio-Class'
p806
tp807
Rp808
sg52
g4
(g5
(S'S1'
p809
I0
I1
tp810
Rp811
(I3
S'|'
p812
NNNI1
I1
I0
tp813
bg115
tp814
Rp815
sg53
(lp816
sbasba(iTree_Model
Tree
p817
(dp818
g2
(lp819
sg26
(lp820
sg43
g4
(g5
(S'S24'
p821
I0
I1
tp822
Rp823
(I3
S'|'
p824
NNNI24
I1
I0
tp825
bS'Interfacial Tensio-Class'
p826
tp827
Rp828
sg52
g4
(g5
(S'S1'
p829
I0
I1
tp830
Rp831
(I3
S'|'
p832
NNNI1
I1
I0
tp833
bg115
tp834
Rp835
sg53
(lp836
sbasba(iTree_Model
Tree
p837
(dp838
g2
(lp839
sg26
(lp840
sg43
g4
(g5
(S'S24'
p841
I0
I1
tp842
Rp843
(I3
S'|'
p844
NNNI24
I1
I0
tp845
bS'Interfacial Tensio-Class'
p846
tp847
Rp848
sg52
g4
(g5
(S'S1'
p849
I0
I1
tp850
Rp851
(I3
S'|'
p852
NNNI1
I1
I0
tp853
bg115
tp854
Rp855
sg53
(lp856
sba(iTree_Model
Tree
p857
(dp858
g2
(lp859
sg26
(lp860
sg43
g4
(g5
(S'S24'
p861
I0
I1
tp862
Rp863
(I3
S'|'
p864
NNNI24
I1
I0
tp865
bS'Interfacial Tensio-Class'
p866
tp867
Rp868
sg52
g4
(g5
(S'S1'
p869
I0
I1
tp870
Rp871
(I3
S'|'
p872
NNNI1
I1
I0
tp873
bg115
tp874
Rp875
sg53
(lp876
sba(iTree_Model
Tree
p877
(dp878
g2
(lp879
sg26
(lp880
sg43
g4
(g5
(S'S24'
p881
I0
I1
tp882
Rp883
(I3
S'|'
p884
NNNI24
I1
I0
tp885
bS'Interfacial Tensio-Class'
p886
tp887
Rp888
sg52
g4
(g5
(S'S1'
p889
I0
I1
tp890
Rp891
(I3
S'|'
p892
NNNI1
I1
I0
tp893
bg115
tp894
Rp895
sg53
(lp896
sba(iTree_Model
Tree
p897
(dp898
g2
(lp899
sg26
(lp900
sg43
g4
(g5
(S'S24'
p901
I0
I1
tp902
Rp903
(I3
S'|'
p904
NNNI24
I1
I0
tp905
bS'Interfacial Tensio-Class'
p906
tp907
Rp908
sg52
g4
(g5
(S'S1'
p909
I0
I1
tp910
Rp911
(I3
S'|'
p912
NNNI1
I1
I0
tp913
bS'B'
p914
tp915
Rp916
sg53
(lp917
sbasba(iTree_Model
Tree
p918
(dp919
g2
(lp920
g4
(g8
S'\x00\x00\x00\x00\x00\x00\x14@'
p921
tp922
Rp923
ag4
(g8
S'\x00\x00\x00\x00\x00\x00"@'
p924
tp925
Rp926
ag4
(g8
S'\x00\x00\x00\x00\x00\x00*@'
p927
tp928
Rp929
ag4
(g8
S'\x00\x00\x00\x00\x00\x001@'
p930
tp931
Rp932
ag4
(g8
S'\x9a\x99\x99\x99\x99\x195@'
p933
tp934
Rp935
asg26
(lp936
g4
(g8
S'\x00\x00\x00\x00\x00\x00\xf0?'
p937
tp938
Rp939
ag4
(g8
S'\x00\x00\x00\x00\x00\x00\x14@'
p940
tp941
Rp942
ag4
(g8
S'\x00\x00\x00\x00\x00\x00"@'
p943
tp944
Rp945
ag4
(g8
S'\x00\x00\x00\x00\x00\x00*@'
p946
tp947
Rp948
ag4
(g8
S'\x00\x00\x00\x00\x00\x001@'
p949
tp950
Rp951
asg43
g4
(g5
(S'S28'
p952
I0
I1
tp953
Rp954
(I3
S'|'
p955
NNNI28
I1
I0
tp956
bS'Water content measured (ppm)'
p957
tp958
Rp959
sg52
Nsg53
(lp960
(iTree_Model
Tree
p961
(dp962
g2
(lp963
sg26
(lp964
sg43
g4
(g5
(S'S24'
p965
I0
I1
tp966
Rp967
(I3
S'|'
p968
NNNI24
I1
I0
tp969
bS'Interfacial Tensio-Class'
p970
tp971
Rp972
sg52
g4
(g5
(S'S1'
p973
I0
I1
tp974
Rp975
(I3
S'|'
p976
NNNI1
I1
I0
tp977
bg115
tp978
Rp979
sg53
(lp980
sba(iTree_Model
Tree
p981
(dp982
g2
(lp983
sg26
(lp984
sg43
g4
(g5
(S'S24'
p985
I0
I1
tp986
Rp987
(I3
S'|'
p988
NNNI24
I1
I0
tp989
bS'Interfacial Tensio-Class'
p990
tp991
Rp992
sg52
g4
(g5
(S'S1'
p993
I0
I1
tp994
Rp995
(I3
S'|'
p996
NNNI1
I1
I0
tp997
bg115
tp998
Rp999
sg53
(lp1000
sba(iTree_Model
Tree
p1001
(dp1002
g2
(lp1003
sg26
(lp1004
sg43
g4
(g5
(S'S24'
p1005
I0
I1
tp1006
Rp1007
(I3
S'|'
p1008
NNNI24
I1
I0
tp1009
bS'Interfacial Tensio-Class'
p1010
tp1011
Rp1012
sg52
g4
(g5
(S'S1'
p1013
I0
I1
tp1014
Rp1015
(I3
S'|'
p1016
NNNI1
I1
I0
tp1017
bg115
tp1018
Rp1019
sg53
(lp1020
sba(iTree_Model
Tree
p1021
(dp1022
g2
(lp1023
sg26
(lp1024
sg43
g4
(g5
(S'S24'
p1025
I0
I1
tp1026
Rp1027
(I3
S'|'
p1028
NNNI24
I1
I0
tp1029
bS'Interfacial Tensio-Class'
p1030
tp1031
Rp1032
sg52
g4
(g5
(S'S1'
p1033
I0
I1
tp1034
Rp1035
(I3
S'|'
p1036
NNNI1
I1
I0
tp1037
bg115
tp1038
Rp1039
sg53
(lp1040
sba(iTree_Model
Tree
p1041
(dp1042
g2
(lp1043
sg26
(lp1044
sg43
g4
(g5
(S'S24'
p1045
I0
I1
tp1046
Rp1047
(I3
S'|'
p1048
NNNI24
I1
I0
tp1049
bS'Interfacial Tensio-Class'
p1050
tp1051
Rp1052
sg52
g4
(g5
(S'S1'
p1053
I0
I1
tp1054
Rp1055
(I3
S'|'
p1056
NNNI1
I1
I0
tp1057
bg115
tp1058
Rp1059
sg53
(lp1060
sbasbasba(iTree_Model
Tree
p1061
(dp1062
g2
(lp1063
g4
(g8
S'\xd4+e\x19\xe2X\x87?'
p1064
tp1065
Rp1066
ag4
(g8
S'4\x116<\xbdR\x96?'
p1067
tp1068
Rp1069
ag4
(g8
S'?\xc6\xdc\xb5\x84|\xa0?'
p1070
tp1071
Rp1072
ag4
(g8
S'\xe4\x83\x9e\xcd\xaa\xcf\xa5?'
p1073
tp1074
Rp1075
ag4
(g8
S'/\xdd$\x06\x81\x95\xc3?'
p1076
tp1077
Rp1078
asg26
(lp1079
g4
(g8
S'\xfc\xa9\xf1\xd2MbP?'
p1080
tp1081
Rp1082
ag4
(g8
S'\xd4+e\x19\xe2X\x87?'
p1083
tp1084
Rp1085
ag4
(g8
S'4\x116<\xbdR\x96?'
p1086
tp1087
Rp1088
ag4
(g8
S'?\xc6\xdc\xb5\x84|\xa0?'
p1089
tp1090
Rp1091
ag4
(g8
S'\xe4\x83\x9e\xcd\xaa\xcf\xa5?'
p1092
tp1093
Rp1094
asg43
g4
(g5
(S'S19'
p1095
I0
I1
tp1096
Rp1097
(I3
S'|'
p1098
NNNI19
I1
I0
tp1099
bS'Dissipation Factor '
p1100
tp1101
Rp1102
sg52
Nsg53
(lp1103
(iTree_Model
Tree
p1104
(dp1105
g2
(lp1106
sg26
(lp1107
sg43
g4
(g5
(S'S24'
p1108
I0
I1
tp1109
Rp1110
(I3
S'|'
p1111
NNNI24
I1
I0
tp1112
bS'Interfacial Tensio-Class'
p1113
tp1114
Rp1115
sg52
g4
(g5
(S'S1'
p1116
I0
I1
tp1117
Rp1118
(I3
S'|'
p1119
NNNI1
I1
I0
tp1120
bg115
tp1121
Rp1122
sg53
(lp1123
sba(iTree_Model
Tree
p1124
(dp1125
g2
(lp1126
g4
(g8
S'\xcd\xcc\xcc\xcc\xccL@@'
p1127
tp1128
Rp1129
ag4
(g8
S'\x9a\x99\x99\x99\x99\x19G@'
p1130
tp1131
Rp1132
ag4
(g8
S'fffff\xe6M@'
p1133
tp1134
Rp1135
ag4
(g8
S'\x9a\x99\x99\x99\x99YR@'
p1136
tp1137
Rp1138
ag4
(g8
S'fffff\xc6U@'
p1139
tp1140
Rp1141
asg26
(lp1142
g4
(g8
S'\x00\x00\x00\x00\x00\x003@'
p1143
tp1144
Rp1145
ag4
(g8
S'\xcd\xcc\xcc\xcc\xccL@@'
p1146
tp1147
Rp1148
ag4
(g8
S'\x9a\x99\x99\x99\x99\x19G@'
p1149
tp1150
Rp1151
ag4
(g8
S'fffff\xe6M@'
p1152
tp1153
Rp1154
ag4
(g8
S'\x9a\x99\x99\x99\x99YR@'
p1155
tp1156
Rp1157
asg43
g4
(g5
(S'S22'
p1158
I0
I1
tp1159
Rp1160
(I3
S'|'
p1161
NNNI22
I1
I0
tp1162
bS'Breakdown Voltage (kV)'
p1163
tp1164
Rp1165
sg52
Nsg53
(lp1166
(iTree_Model
Tree
p1167
(dp1168
g2
(lp1169
sg26
(lp1170
sg43
g4
(g5
(S'S24'
p1171
I0
I1
tp1172
Rp1173
(I3
S'|'
p1174
NNNI24
I1
I0
tp1175
bS'Interfacial Tensio-Class'
p1176
tp1177
Rp1178
sg52
g4
(g5
(S'S1'
p1179
I0
I1
tp1180
Rp1181
(I3
S'|'
p1182
NNNI1
I1
I0
tp1183
bg115
tp1184
Rp1185
sg53
(lp1186
sba(iTree_Model
Tree
p1187
(dp1188
g2
(lp1189
sg26
(lp1190
sg43
g4
(g5
(S'S24'
p1191
I0
I1
tp1192
Rp1193
(I3
S'|'
p1194
NNNI24
I1
I0
tp1195
bS'Interfacial Tensio-Class'
p1196
tp1197
Rp1198
sg52
g4
(g5
(S'S1'
p1199
I0
I1
tp1200
Rp1201
(I3
S'|'
p1202
NNNI1
I1
I0
tp1203
bg115
tp1204
Rp1205
sg53
(lp1206
sba(iTree_Model
Tree
p1207
(dp1208
g2
(lp1209
sg26
(lp1210
sg43
g4
(g5
(S'S24'
p1211
I0
I1
tp1212
Rp1213
(I3
S'|'
p1214
NNNI24
I1
I0
tp1215
bS'Interfacial Tensio-Class'
p1216
tp1217
Rp1218
sg52
g4
(g5
(S'S1'
p1219
I0
I1
tp1220
Rp1221
(I3
S'|'
p1222
NNNI1
I1
I0
tp1223
bg115
tp1224
Rp1225
sg53
(lp1226
sba(iTree_Model
Tree
p1227
(dp1228
g2
(lp1229
sg26
(lp1230
sg43
g4
(g5
(S'S24'
p1231
I0
I1
tp1232
Rp1233
(I3
S'|'
p1234
NNNI24
I1
I0
tp1235
bS'Interfacial Tensio-Class'
p1236
tp1237
Rp1238
sg52
g4
(g5
(S'S1'
p1239
I0
I1
tp1240
Rp1241
(I3
S'|'
p1242
NNNI1
I1
I0
tp1243
bg115
tp1244
Rp1245
sg53
(lp1246
sba(iTree_Model
Tree
p1247
(dp1248
g2
(lp1249
sg26
(lp1250
sg43
g4
(g5
(S'S24'
p1251
I0
I1
tp1252
Rp1253
(I3
S'|'
p1254
NNNI24
I1
I0
tp1255
bS'Interfacial Tensio-Class'
p1256
tp1257
Rp1258
sg52
g4
(g5
(S'S1'
p1259
I0
I1
tp1260
Rp1261
(I3
S'|'
p1262
NNNI1
I1
I0
tp1263
bg115
tp1264
Rp1265
sg53
(lp1266
sbasba(iTree_Model
Tree
p1267
(dp1268
g2
(lp1269
g4
(g8
S'\x00\x00\x00\x00\x00\x00D@'
p1270
tp1271
Rp1272
ag4
(g8
S'\x00\x00\x00\x00\x00\x00J@'
p1273
tp1274
Rp1275
ag4
(g8
S'\x00\x00\x00\x00\x00\x00P@'
p1276
tp1277
Rp1278
ag4
(g8
S'\x00\x00\x00\x00\x00\x00S@'
p1279
tp1280
Rp1281
ag4
(g8
S'fffff\x06V@'
p1282
tp1283
Rp1284
asg26
(lp1285
g4
(g8
S'\x00\x00\x00\x00\x00\x00<@'
p1286
tp1287
Rp1288
ag4
(g8
S'\x00\x00\x00\x00\x00\x00D@'
p1289
tp1290
Rp1291
ag4
(g8
S'\x00\x00\x00\x00\x00\x00J@'
p1292
tp1293
Rp1294
ag4
(g8
S'\x00\x00\x00\x00\x00\x00P@'
p1295
tp1296
Rp1297
ag4
(g8
S'\x00\x00\x00\x00\x00\x00S@'
p1298
tp1299
Rp1300
asg43
g4
(g5
(S'S22'
p1301
I0
I1
tp1302
Rp1303
(I3
S'|'
p1304
NNNI22
I1
I0
tp1305
bS'Breakdown Voltage (kV)'
p1306
tp1307
Rp1308
sg52
Nsg53
(lp1309
(iTree_Model
Tree
p1310
(dp1311
g2
(lp1312
sg26
(lp1313
sg43
g4
(g5
(S'S24'
p1314
I0
I1
tp1315
Rp1316
(I3
S'|'
p1317
NNNI24
I1
I0
tp1318
bS'Interfacial Tensio-Class'
p1319
tp1320
Rp1321
sg52
g4
(g5
(S'S1'
p1322
I0
I1
tp1323
Rp1324
(I3
S'|'
p1325
NNNI1
I1
I0
tp1326
bg115
tp1327
Rp1328
sg53
(lp1329
sba(iTree_Model
Tree
p1330
(dp1331
g2
(lp1332
sg26
(lp1333
sg43
g4
(g5
(S'S24'
p1334
I0
I1
tp1335
Rp1336
(I3
S'|'
p1337
NNNI24
I1
I0
tp1338
bS'Interfacial Tensio-Class'
p1339
tp1340
Rp1341
sg52
g4
(g5
(S'S1'
p1342
I0
I1
tp1343
Rp1344
(I3
S'|'
p1345
NNNI1
I1
I0
tp1346
bS'M'
p1347
tp1348
Rp1349
sg53
(lp1350
sba(iTree_Model
Tree
p1351
(dp1352
g2
(lp1353
sg26
(lp1354
sg43
g4
(g5
(S'S24'
p1355
I0
I1
tp1356
Rp1357
(I3
S'|'
p1358
NNNI24
I1
I0
tp1359
bS'Interfacial Tensio-Class'
p1360
tp1361
Rp1362
sg52
g4
(g5
(S'S1'
p1363
I0
I1
tp1364
Rp1365
(I3
S'|'
p1366
NNNI1
I1
I0
tp1367
bg1347
tp1368
Rp1369
sg53
(lp1370
sba(iTree_Model
Tree
p1371
(dp1372
g2
(lp1373
sg26
(lp1374
sg43
g4
(g5
(S'S24'
p1375
I0
I1
tp1376
Rp1377
(I3
S'|'
p1378
NNNI24
I1
I0
tp1379
bS'Interfacial Tensio-Class'
p1380
tp1381
Rp1382
sg52
g4
(g5
(S'S1'
p1383
I0
I1
tp1384
Rp1385
(I3
S'|'
p1386
NNNI1
I1
I0
tp1387
bg115
tp1388
Rp1389
sg53
(lp1390
sba(iTree_Model
Tree
p1391
(dp1392
g2
(lp1393
sg26
(lp1394
sg43
g4
(g5
(S'S24'
p1395
I0
I1
tp1396
Rp1397
(I3
S'|'
p1398
NNNI24
I1
I0
tp1399
bS'Interfacial Tensio-Class'
p1400
tp1401
Rp1402
sg52
g4
(g5
(S'S1'
p1403
I0
I1
tp1404
Rp1405
(I3
S'|'
p1406
NNNI1
I1
I0
tp1407
bg115
tp1408
Rp1409
sg53
(lp1410
sbasba(iTree_Model
Tree
p1411
(dp1412
g2
(lp1413
sg26
(lp1414
sg43
g4
(g5
(S'S24'
p1415
I0
I1
tp1416
Rp1417
(I3
S'|'
p1418
NNNI24
I1
I0
tp1419
bS'Interfacial Tensio-Class'
p1420
tp1421
Rp1422
sg52
g4
(g5
(S'S1'
p1423
I0
I1
tp1424
Rp1425
(I3
S'|'
p1426
NNNI1
I1
I0
tp1427
bg1347
tp1428
Rp1429
sg53
(lp1430
sba(iTree_Model
Tree
p1431
(dp1432
g2
(lp1433
sg26
(lp1434
sg43
g4
(g5
(S'S24'
p1435
I0
I1
tp1436
Rp1437
(I3
S'|'
p1438
NNNI24
I1
I0
tp1439
bS'Interfacial Tensio-Class'
p1440
tp1441
Rp1442
sg52
g4
(g5
(S'S1'
p1443
I0
I1
tp1444
Rp1445
(I3
S'|'
p1446
NNNI1
I1
I0
tp1447
bg914
tp1448
Rp1449
sg53
(lp1450
sbasba(iTree_Model
Tree
p1451
(dp1452
g2
(lp1453
g4
(g8
S'>\n\xd7\xa3p}@@'
p1454
tp1455
Rp1456
ag4
(g8
S'{\x14\xaeG\xe1zH@'
p1457
tp1458
Rp1459
ag4
(g8
S'\\\x8f\xc2\xf5(<P@'
p1460
tp1461
Rp1462
ag4
(g8
S'{\x14\xaeG\xe1:T@'
p1463
tp1464
Rp1465
ag4
(g8
S'\x00\x00\x00\x00\x00@X@'
p1466
tp1467
Rp1468
asg26
(lp1469
g4
(g8
S'\x00\x00\x00\x00\x00\x001@'
p1470
tp1471
Rp1472
ag4
(g8
S'>\n\xd7\xa3p}@@'
p1473
tp1474
Rp1475
ag4
(g8
S'{\x14\xaeG\xe1zH@'
p1476
tp1477
Rp1478
ag4
(g8
S'\\\x8f\xc2\xf5(<P@'
p1479
tp1480
Rp1481
ag4
(g8
S'{\x14\xaeG\xe1:T@'
p1482
tp1483
Rp1484
asg43
g4
(g5
(S'S22'
p1485
I0
I1
tp1486
Rp1487
(I3
S'|'
p1488
NNNI22
I1
I0
tp1489
bS'Breakdown Voltage (kV)'
p1490
tp1491
Rp1492
sg52
Nsg53
(lp1493
(iTree_Model
Tree
p1494
(dp1495
g2
(lp1496
sg26
(lp1497
sg43
g4
(g5
(S'S24'
p1498
I0
I1
tp1499
Rp1500
(I3
S'|'
p1501
NNNI24
I1
I0
tp1502
bS'Interfacial Tensio-Class'
p1503
tp1504
Rp1505
sg52
g4
(g5
(S'S1'
p1506
I0
I1
tp1507
Rp1508
(I3
S'|'
p1509
NNNI1
I1
I0
tp1510
bg914
tp1511
Rp1512
sg53
(lp1513
sba(iTree_Model
Tree
p1514
(dp1515
g2
(lp1516
sg26
(lp1517
sg43
g4
(g5
(S'S24'
p1518
I0
I1
tp1519
Rp1520
(I3
S'|'
p1521
NNNI24
I1
I0
tp1522
bS'Interfacial Tensio-Class'
p1523
tp1524
Rp1525
sg52
g4
(g5
(S'S1'
p1526
I0
I1
tp1527
Rp1528
(I3
S'|'
p1529
NNNI1
I1
I0
tp1530
bg1347
tp1531
Rp1532
sg53
(lp1533
sba(iTree_Model
Tree
p1534
(dp1535
g2
(lp1536
g4
(g8
S'\x00\x00\x00\x00\x00\x00\x1c@'
p1537
tp1538
Rp1539
ag4
(g8
S'\x00\x00\x00\x00\x00\x00$@'
p1540
tp1541
Rp1542
ag4
(g8
S'\x00\x00\x00\x00\x00\x00*@'
p1543
tp1544
Rp1545
ag4
(g8
S'\x00\x00\x00\x00\x00\x000@'
p1546
tp1547
Rp1548
ag4
(g8
S'\x9a\x99\x99\x99\x99\x193@'
p1549
tp1550
Rp1551
asg26
(lp1552
g4
(g8
S'\x00\x00\x00\x00\x00\x00\x10@'
p1553
tp1554
Rp1555
ag4
(g8
S'\x00\x00\x00\x00\x00\x00\x1c@'
p1556
tp1557
Rp1558
ag4
(g8
S'\x00\x00\x00\x00\x00\x00$@'
p1559
tp1560
Rp1561
ag4
(g8
S'\x00\x00\x00\x00\x00\x00*@'
p1562
tp1563
Rp1564
ag4
(g8
S'\x00\x00\x00\x00\x00\x000@'
p1565
tp1566
Rp1567
asg43
g4
(g5
(S'S28'
p1568
I0
I1
tp1569
Rp1570
(I3
S'|'
p1571
NNNI28
I1
I0
tp1572
bS'Water content measured (ppm)'
p1573
tp1574
Rp1575
sg52
Nsg53
(lp1576
(iTree_Model
Tree
p1577
(dp1578
g2
(lp1579
sg26
(lp1580
sg43
g4
(g5
(S'S24'
p1581
I0
I1
tp1582
Rp1583
(I3
S'|'
p1584
NNNI24
I1
I0
tp1585
bS'Interfacial Tensio-Class'
p1586
tp1587
Rp1588
sg52
g4
(g5
(S'S1'
p1589
I0
I1
tp1590
Rp1591
(I3
S'|'
p1592
NNNI1
I1
I0
tp1593
bg1347
tp1594
Rp1595
sg53
(lp1596
sba(iTree_Model
Tree
p1597
(dp1598
g2
(lp1599
sg26
(lp1600
sg43
g4
(g5
(S'S24'
p1601
I0
I1
tp1602
Rp1603
(I3
S'|'
p1604
NNNI24
I1
I0
tp1605
bS'Interfacial Tensio-Class'
p1606
tp1607
Rp1608
sg52
g4
(g5
(S'S1'
p1609
I0
I1
tp1610
Rp1611
(I3
S'|'
p1612
NNNI1
I1
I0
tp1613
bg1347
tp1614
Rp1615
sg53
(lp1616
sba(iTree_Model
Tree
p1617
(dp1618
g2
(lp1619
sg26
(lp1620
sg43
g4
(g5
(S'S24'
p1621
I0
I1
tp1622
Rp1623
(I3
S'|'
p1624
NNNI24
I1
I0
tp1625
bS'Interfacial Tensio-Class'
p1626
tp1627
Rp1628
sg52
g4
(g5
(S'S1'
p1629
I0
I1
tp1630
Rp1631
(I3
S'|'
p1632
NNNI1
I1
I0
tp1633
bg115
tp1634
Rp1635
sg53
(lp1636
sba(iTree_Model
Tree
p1637
(dp1638
g2
(lp1639
sg26
(lp1640
sg43
g4
(g5
(S'S24'
p1641
I0
I1
tp1642
Rp1643
(I3
S'|'
p1644
NNNI24
I1
I0
tp1645
bS'Interfacial Tensio-Class'
p1646
tp1647
Rp1648
sg52
g4
(g5
(S'S1'
p1649
I0
I1
tp1650
Rp1651
(I3
S'|'
p1652
NNNI1
I1
I0
tp1653
bg115
tp1654
Rp1655
sg53
(lp1656
sba(iTree_Model
Tree
p1657
(dp1658
g2
(lp1659
sg26
(lp1660
sg43
g4
(g5
(S'S24'
p1661
I0
I1
tp1662
Rp1663
(I3
S'|'
p1664
NNNI24
I1
I0
tp1665
bS'Interfacial Tensio-Class'
p1666
tp1667
Rp1668
sg52
g4
(g5
(S'S1'
p1669
I0
I1
tp1670
Rp1671
(I3
S'|'
p1672
NNNI1
I1
I0
tp1673
bg1347
tp1674
Rp1675
sg53
(lp1676
sbasba(iTree_Model
Tree
p1677
(dp1678
g2
(lp1679
g4
(g8
S' \xd2o_\x07\xce\x99?'
p1680
tp1681
Rp1682
ag4
(g8
S'\xb2\xbf\xec\x9e<,\xa4?'
p1683
tp1684
Rp1685
ag4
(g8
S'R\x96!\x8euq\xab?'
p1686
tp1687
Rp1688
ag4
(g8
S'z6\xab>W[\xb1?'
p1689
tp1690
Rp1691
ag4
(g8
S'\xb2\x9d\xef\xa7\xc6K\xc7?'
p1692
tp1693
Rp1694
asg26
(lp1695
g4
(g8
S'\xbaI\x0c\x02+\x87\x86?'
p1696
tp1697
Rp1698
ag4
(g8
S' \xd2o_\x07\xce\x99?'
p1699
tp1700
Rp1701
ag4
(g8
S'\xb2\xbf\xec\x9e<,\xa4?'
p1702
tp1703
Rp1704
ag4
(g8
S'R\x96!\x8euq\xab?'
p1705
tp1706
Rp1707
ag4
(g8
S'z6\xab>W[\xb1?'
p1708
tp1709
Rp1710
asg43
g4
(g5
(S'S19'
p1711
I0
I1
tp1712
Rp1713
(I3
S'|'
p1714
NNNI19
I1
I0
tp1715
bS'Dissipation Factor '
p1716
tp1717
Rp1718
sg52
Nsg53
(lp1719
(iTree_Model
Tree
p1720
(dp1721
g2
(lp1722
g4
(g8
S'\xfa~j\xbct\x93\x98?'
p1723
tp1724
Rp1725
ag4
(g8
S'\xecQ\xb8\x1e\x85\xeb\xa1?'
p1726
tp1727
Rp1728
ag4
(g8
S'Zd;\xdfO\x8d\xa7?'
p1729
tp1730
Rp1731
ag4
(g8
S'\xc9v\xbe\x9f\x1a/\xad?'
p1732
tp1733
Rp1734
ag4
(g8
S'\x1b/\xdd$\x06\x81\xc5?'
p1735
tp1736
Rp1737
asg26
(lp1738
g4
(g8
S'9\xb4\xc8v\xbe\x9f\x8a?'
p1739
tp1740
Rp1741
ag4
(g8
S'\xfa~j\xbct\x93\x98?'
p1742
tp1743
Rp1744
ag4
(g8
S'\xecQ\xb8\x1e\x85\xeb\xa1?'
p1745
tp1746
Rp1747
ag4
(g8
S'Zd;\xdfO\x8d\xa7?'
p1748
tp1749
Rp1750
ag4
(g8
S'\xc9v\xbe\x9f\x1a/\xad?'
p1751
tp1752
Rp1753
asg43
g4
(g5
(S'S28'
p1754
I0
I1
tp1755
Rp1756
(I3
S'|'
p1757
NNNI28
I1
I0
tp1758
bS'Total Acid Number (mgKOH/ g)'
p1759
tp1760
Rp1761
sg52
Nsg53
(lp1762
(iTree_Model
Tree
p1763
(dp1764
g2
(lp1765
g4
(g8
S'\x00\x00\x00\x00\x00\x00\x08@'
p1766
tp1767
Rp1768
ag4
(g8
S'\x00\x00\x00\x00\x00\x00\x14@'
p1769
tp1770
Rp1771
ag4
(g8
S'\x00\x00\x00\x00\x00\x00\x1c@'
p1772
tp1773
Rp1774
ag4
(g8
S'\x00\x00\x00\x00\x00\x00"@'
p1775
tp1776
Rp1777
ag4
(g8
S'333333&@'
p1778
tp1779
Rp1780
asg26
(lp1781
g4
(g8
S'\x00\x00\x00\x00\x00\x00\xf0?'
p1782
tp1783
Rp1784
ag4
(g8
S'\x00\x00\x00\x00\x00\x00\x08@'
p1785
tp1786
Rp1787
ag4
(g8
S'\x00\x00\x00\x00\x00\x00\x14@'
p1788
tp1789
Rp1790
ag4
(g8
S'\x00\x00\x00\x00\x00\x00\x1c@'
p1791
tp1792
Rp1793
ag4
(g8
S'\x00\x00\x00\x00\x00\x00"@'
p1794
tp1795
Rp1796
asg43
g4
(g5
(S'S28'
p1797
I0
I1
tp1798
Rp1799
(I3
S'|'
p1800
NNNI28
I1
I0
tp1801
bS'Water content measured (ppm)'
p1802
tp1803
Rp1804
sg52
Nsg53
(lp1805
(iTree_Model
Tree
p1806
(dp1807
g2
(lp1808
sg26
(lp1809
sg43
g4
(g5
(S'S24'
p1810
I0
I1
tp1811
Rp1812
(I3
S'|'
p1813
NNNI24
I1
I0
tp1814
bS'Interfacial Tensio-Class'
p1815
tp1816
Rp1817
sg52
g4
(g5
(S'S1'
p1818
I0
I1
tp1819
Rp1820
(I3
S'|'
p1821
NNNI1
I1
I0
tp1822
bg115
tp1823
Rp1824
sg53
(lp1825
sba(iTree_Model
Tree
p1826
(dp1827
g2
(lp1828
sg26
(lp1829
sg43
g4
(g5
(S'S24'
p1830
I0
I1
tp1831
Rp1832
(I3
S'|'
p1833
NNNI24
I1
I0
tp1834
bS'Interfacial Tensio-Class'
p1835
tp1836
Rp1837
sg52
g4
(g5
(S'S1'
p1838
I0
I1
tp1839
Rp1840
(I3
S'|'
p1841
NNNI1
I1
I0
tp1842
bg115
tp1843
Rp1844
sg53
(lp1845
sba(iTree_Model
Tree
p1846
(dp1847
g2
(lp1848
sg26
(lp1849
sg43
g4
(g5
(S'S24'
p1850
I0
I1
tp1851
Rp1852
(I3
S'|'
p1853
NNNI24
I1
I0
tp1854
bS'Interfacial Tensio-Class'
p1855
tp1856
Rp1857
sg52
g4
(g5
(S'S1'
p1858
I0
I1
tp1859
Rp1860
(I3
S'|'
p1861
NNNI1
I1
I0
tp1862
bg115
tp1863
Rp1864
sg53
(lp1865
sba(iTree_Model
Tree
p1866
(dp1867
g2
(lp1868
sg26
(lp1869
sg43
g4
(g5
(S'S24'
p1870
I0
I1
tp1871
Rp1872
(I3
S'|'
p1873
NNNI24
I1
I0
tp1874
bS'Interfacial Tensio-Class'
p1875
tp1876
Rp1877
sg52
g4
(g5
(S'S1'
p1878
I0
I1
tp1879
Rp1880
(I3
S'|'
p1881
NNNI1
I1
I0
tp1882
bg115
tp1883
Rp1884
sg53
(lp1885
sba(iTree_Model
Tree
p1886
(dp1887
g2
(lp1888
sg26
(lp1889
sg43
g4
(g5
(S'S24'
p1890
I0
I1
tp1891
Rp1892
(I3
S'|'
p1893
NNNI24
I1
I0
tp1894
bS'Interfacial Tensio-Class'
p1895
tp1896
Rp1897
sg52
g4
(g5
(S'S1'
p1898
I0
I1
tp1899
Rp1900
(I3
S'|'
p1901
NNNI1
I1
I0
tp1902
bg115
tp1903
Rp1904
sg53
(lp1905
sbasba(iTree_Model
Tree
p1906
(dp1907
g2
(lp1908
sg26
(lp1909
sg43
g4
(g5
(S'S24'
p1910
I0
I1
tp1911
Rp1912
(I3
S'|'
p1913
NNNI24
I1
I0
tp1914
bS'Interfacial Tensio-Class'
p1915
tp1916
Rp1917
sg52
g4
(g5
(S'S1'
p1918
I0
I1
tp1919
Rp1920
(I3
S'|'
p1921
NNNI1
I1
I0
tp1922
bg1347
tp1923
Rp1924
sg53
(lp1925
sba(iTree_Model
Tree
p1926
(dp1927
g2
(lp1928
sg26
(lp1929
sg43
g4
(g5
(S'S24'
p1930
I0
I1
tp1931
Rp1932
(I3
S'|'
p1933
NNNI24
I1
I0
tp1934
bS'Interfacial Tensio-Class'
p1935
tp1936
Rp1937
sg52
g4
(g5
(S'S1'
p1938
I0
I1
tp1939
Rp1940
(I3
S'|'
p1941
NNNI1
I1
I0
tp1942
bg115
tp1943
Rp1944
sg53
(lp1945
sba(iTree_Model
Tree
p1946
(dp1947
g2
(lp1948
sg26
(lp1949
sg43
g4
(g5
(S'S24'
p1950
I0
I1
tp1951
Rp1952
(I3
S'|'
p1953
NNNI24
I1
I0
tp1954
bS'Interfacial Tensio-Class'
p1955
tp1956
Rp1957
sg52
g4
(g5
(S'S1'
p1958
I0
I1
tp1959
Rp1960
(I3
S'|'
p1961
NNNI1
I1
I0
tp1962
bg115
tp1963
Rp1964
sg53
(lp1965
sba(iTree_Model
Tree
p1966
(dp1967
g2
(lp1968
sg26
(lp1969
sg43
g4
(g5
(S'S24'
p1970
I0
I1
tp1971
Rp1972
(I3
S'|'
p1973
NNNI24
I1
I0
tp1974
bS'Interfacial Tensio-Class'
p1975
tp1976
Rp1977
sg52
g4
(g5
(S'S1'
p1978
I0
I1
tp1979
Rp1980
(I3
S'|'
p1981
NNNI1
I1
I0
tp1982
bg914
tp1983
Rp1984
sg53
(lp1985
sbasba(iTree_Model
Tree
p1986
(dp1987
g2
(lp1988
g4
(g8
S'b2U0*\xa9\x93?'
p1989
tp1990
Rp1991
ag4
(g8
S'F%u\x02\x9a\x08\x9b?'
p1992
tp1993
Rp1994
ag4
(g8
S'\x16\x8cJ\xea\x044\xa1?'
p1995
tp1996
Rp1997
ag4
(g8
S'\x88\x85Z\xd3\xbc\xe3\xa4?'
p1998
tp1999
Rp2000
ag4
(g8
S'\x8cl\xe7\xfb\xa9\xf1\xc2?'
p2001
tp2002
Rp2003
asg26
(lp2004
g4
(g8
S'\xfa~j\xbct\x93\x88?'
p2005
tp2006
Rp2007
ag4
(g8
S'b2U0*\xa9\x93?'
p2008
tp2009
Rp2010
ag4
(g8
S'F%u\x02\x9a\x08\x9b?'
p2011
tp2012
Rp2013
ag4
(g8
S'\x16\x8cJ\xea\x044\xa1?'
p2014
tp2015
Rp2016
ag4
(g8
S'\x88\x85Z\xd3\xbc\xe3\xa4?'
p2017
tp2018
Rp2019
asg43
g4
(g5
(S'S28'
p2020
I0
I1
tp2021
Rp2022
(I3
S'|'
p2023
NNNI28
I1
I0
tp2024
bS'Total Acid Number (mgKOH/ g)'
p2025
tp2026
Rp2027
sg52
Nsg53
(lp2028
(iTree_Model
Tree
p2029
(dp2030
g2
(lp2031
sg26
(lp2032
sg43
g4
(g5
(S'S24'
p2033
I0
I1
tp2034
Rp2035
(I3
S'|'
p2036
NNNI24
I1
I0
tp2037
bS'Interfacial Tensio-Class'
p2038
tp2039
Rp2040
sg52
g4
(g5
(S'S1'
p2041
I0
I1
tp2042
Rp2043
(I3
S'|'
p2044
NNNI1
I1
I0
tp2045
bg914
tp2046
Rp2047
sg53
(lp2048
sba(iTree_Model
Tree
p2049
(dp2050
g2
(lp2051
sg26
(lp2052
sg43
g4
(g5
(S'S24'
p2053
I0
I1
tp2054
Rp2055
(I3
S'|'
p2056
NNNI24
I1
I0
tp2057
bS'Interfacial Tensio-Class'
p2058
tp2059
Rp2060
sg52
g4
(g5
(S'S1'
p2061
I0
I1
tp2062
Rp2063
(I3
S'|'
p2064
NNNI1
I1
I0
tp2065
bg115
tp2066
Rp2067
sg53
(lp2068
sba(iTree_Model
Tree
p2069
(dp2070
g2
(lp2071
sg26
(lp2072
sg43
g4
(g5
(S'S24'
p2073
I0
I1
tp2074
Rp2075
(I3
S'|'
p2076
NNNI24
I1
I0
tp2077
bS'Interfacial Tensio-Class'
p2078
tp2079
Rp2080
sg52
g4
(g5
(S'S1'
p2081
I0
I1
tp2082
Rp2083
(I3
S'|'
p2084
NNNI1
I1
I0
tp2085
bg1347
tp2086
Rp2087
sg53
(lp2088
sba(iTree_Model
Tree
p2089
(dp2090
g2
(lp2091
sg26
(lp2092
sg43
g4
(g5
(S'S24'
p2093
I0
I1
tp2094
Rp2095
(I3
S'|'
p2096
NNNI24
I1
I0
tp2097
bS'Interfacial Tensio-Class'
p2098
tp2099
Rp2100
sg52
g4
(g5
(S'S1'
p2101
I0
I1
tp2102
Rp2103
(I3
S'|'
p2104
NNNI1
I1
I0
tp2105
bg1347
tp2106
Rp2107
sg53
(lp2108
sba(iTree_Model
Tree
p2109
(dp2110
g2
(lp2111
sg26
(lp2112
sg43
g4
(g5
(S'S24'
p2113
I0
I1
tp2114
Rp2115
(I3
S'|'
p2116
NNNI24
I1
I0
tp2117
bS'Interfacial Tensio-Class'
p2118
tp2119
Rp2120
sg52
g4
(g5
(S'S1'
p2121
I0
I1
tp2122
Rp2123
(I3
S'|'
p2124
NNNI1
I1
I0
tp2125
bg914
tp2126
Rp2127
sg53
(lp2128
sbasba(iTree_Model
Tree
p2129
(dp2130
g2
(lp2131
sg26
(lp2132
sg43
g4
(g5
(S'S24'
p2133
I0
I1
tp2134
Rp2135
(I3
S'|'
p2136
NNNI24
I1
I0
tp2137
bS'Interfacial Tensio-Class'
p2138
tp2139
Rp2140
sg52
g4
(g5
(S'S1'
p2141
I0
I1
tp2142
Rp2143
(I3
S'|'
p2144
NNNI1
I1
I0
tp2145
bg1347
tp2146
Rp2147
sg53
(lp2148
sba(iTree_Model
Tree
p2149
(dp2150
g2
(lp2151
sg26
(lp2152
sg43
g4
(g5
(S'S24'
p2153
I0
I1
tp2154
Rp2155
(I3
S'|'
p2156
NNNI24
I1
I0
tp2157
bS'Interfacial Tensio-Class'
p2158
tp2159
Rp2160
sg52
g4
(g5
(S'S1'
p2161
I0
I1
tp2162
Rp2163
(I3
S'|'
p2164
NNNI1
I1
I0
tp2165
bg914
tp2166
Rp2167
sg53
(lp2168
sba(iTree_Model
Tree
p2169
(dp2170
g2
(lp2171
sg26
(lp2172
sg43
g4
(g5
(S'S24'
p2173
I0
I1
tp2174
Rp2175
(I3
S'|'
p2176
NNNI24
I1
I0
tp2177
bS'Interfacial Tensio-Class'
p2178
tp2179
Rp2180
sg52
g4
(g5
(S'S1'
p2181
I0
I1
tp2182
Rp2183
(I3
S'|'
p2184
NNNI1
I1
I0
tp2185
bg914
tp2186
Rp2187
sg53
(lp2188
sbasba(iTree_Model
Tree
p2189
(dp2190
g2
(lp2191
g4
(g8
S'\xd4+e\x19\xe2X\x97?'
p2192
tp2193
Rp2194
ag4
(g8
S'Dio\xf0\x85\xc9\xa4?'
p2195
tp2196
Rp2197
ag4
(g8
S'\x9f<,\xd4\x9a\xe6\xad?'
p2198
tp2199
Rp2200
ag4
(g8
S'\xfd\x87\xf4\xdb\xd7\x81\xb3?'
p2201
tp2202
Rp2203
ag4
(g8
S'\xa2E\xb6\xf3\xfd\xd4\xc8?'
p2204
tp2205
Rp2206
asg26
(lp2207
g4
(g8
S'{\x14\xaeG\xe1zt?'
p2208
tp2209
Rp2210
ag4
(g8
S'\xd4+e\x19\xe2X\x97?'
p2211
tp2212
Rp2213
ag4
(g8
S'Dio\xf0\x85\xc9\xa4?'
p2214
tp2215
Rp2216
ag4
(g8
S'\x9f<,\xd4\x9a\xe6\xad?'
p2217
tp2218
Rp2219
ag4
(g8
S'\xfd\x87\xf4\xdb\xd7\x81\xb3?'
p2220
tp2221
Rp2222
asg43
g4
(g5
(S'S28'
p2223
I0
I1
tp2224
Rp2225
(I3
S'|'
p2226
NNNI28
I1
I0
tp2227
bS'Total Acid Number (mgKOH/ g)'
p2228
tp2229
Rp2230
sg52
Nsg53
(lp2231
(iTree_Model
Tree
p2232
(dp2233
g2
(lp2234
sg26
(lp2235
sg43
g4
(g5
(S'S24'
p2236
I0
I1
tp2237
Rp2238
(I3
S'|'
p2239
NNNI24
I1
I0
tp2240
bS'Interfacial Tensio-Class'
p2241
tp2242
Rp2243
sg52
g4
(g5
(S'S1'
p2244
I0
I1
tp2245
Rp2246
(I3
S'|'
p2247
NNNI1
I1
I0
tp2248
bg115
tp2249
Rp2250
sg53
(lp2251
sba(iTree_Model
Tree
p2252
(dp2253
g2
(lp2254
sg26
(lp2255
sg43
g4
(g5
(S'S24'
p2256
I0
I1
tp2257
Rp2258
(I3
S'|'
p2259
NNNI24
I1
I0
tp2260
bS'Interfacial Tensio-Class'
p2261
tp2262
Rp2263
sg52
g4
(g5
(S'S1'
p2264
I0
I1
tp2265
Rp2266
(I3
S'|'
p2267
NNNI1
I1
I0
tp2268
bg914
tp2269
Rp2270
sg53
(lp2271
sba(iTree_Model
Tree
p2272
(dp2273
g2
(lp2274
g4
(g8
S'x\xe9&1\x08\xac\x9c?'
p2275
tp2276
Rp2277
ag4
(g8
S'\x9c\xc4 \xb0rh\xa1?'
p2278
tp2279
Rp2280
ag4
(g8
S'{\x14\xaeG\xe1z\xa4?'
p2281
tp2282
Rp2283
ag4
(g8
S'Zd;\xdfO\x8d\xa7?'
p2284
tp2285
Rp2286
ag4
(g8
S'\xdb\xf9~j\xbct\xc3?'
p2287
tp2288
Rp2289
asg26
(lp2290
g4
(g8
S'\xbaI\x0c\x02+\x87\x96?'
p2291
tp2292
Rp2293
ag4
(g8
S'x\xe9&1\x08\xac\x9c?'
p2294
tp2295
Rp2296
ag4
(g8
S'\x9c\xc4 \xb0rh\xa1?'
p2297
tp2298
Rp2299
ag4
(g8
S'{\x14\xaeG\xe1z\xa4?'
p2300
tp2301
Rp2302
ag4
(g8
S'Zd;\xdfO\x8d\xa7?'
p2303
tp2304
Rp2305
asg43
g4
(g5
(S'S19'
p2306
I0
I1
tp2307
Rp2308
(I3
S'|'
p2309
NNNI19
I1
I0
tp2310
bS'Dissipation Factor '
p2311
tp2312
Rp2313
sg52
Nsg53
(lp2314
(iTree_Model
Tree
p2315
(dp2316
g2
(lp2317
sg26
(lp2318
sg43
g4
(g5
(S'S24'
p2319
I0
I1
tp2320
Rp2321
(I3
S'|'
p2322
NNNI24
I1
I0
tp2323
bS'Interfacial Tensio-Class'
p2324
tp2325
Rp2326
sg52
g4
(g5
(S'S1'
p2327
I0
I1
tp2328
Rp2329
(I3
S'|'
p2330
NNNI1
I1
I0
tp2331
bg1347
tp2332
Rp2333
sg53
(lp2334
sba(iTree_Model
Tree
p2335
(dp2336
g2
(lp2337
sg26
(lp2338
sg43
g4
(g5
(S'S24'
p2339
I0
I1
tp2340
Rp2341
(I3
S'|'
p2342
NNNI24
I1
I0
tp2343
bS'Interfacial Tensio-Class'
p2344
tp2345
Rp2346
sg52
g4
(g5
(S'S1'
p2347
I0
I1
tp2348
Rp2349
(I3
S'|'
p2350
NNNI1
I1
I0
tp2351
bg1347
tp2352
Rp2353
sg53
(lp2354
sba(iTree_Model
Tree
p2355
(dp2356
g2
(lp2357
sg26
(lp2358
sg43
g4
(g5
(S'S24'
p2359
I0
I1
tp2360
Rp2361
(I3
S'|'
p2362
NNNI24
I1
I0
tp2363
bS'Interfacial Tensio-Class'
p2364
tp2365
Rp2366
sg52
g4
(g5
(S'S1'
p2367
I0
I1
tp2368
Rp2369
(I3
S'|'
p2370
NNNI1
I1
I0
tp2371
bg1347
tp2372
Rp2373
sg53
(lp2374
sba(iTree_Model
Tree
p2375
(dp2376
g2
(lp2377
sg26
(lp2378
sg43
g4
(g5
(S'S24'
p2379
I0
I1
tp2380
Rp2381
(I3
S'|'
p2382
NNNI24
I1
I0
tp2383
bS'Interfacial Tensio-Class'
p2384
tp2385
Rp2386
sg52
g4
(g5
(S'S1'
p2387
I0
I1
tp2388
Rp2389
(I3
S'|'
p2390
NNNI1
I1
I0
tp2391
bg1347
tp2392
Rp2393
sg53
(lp2394
sba(iTree_Model
Tree
p2395
(dp2396
g2
(lp2397
sg26
(lp2398
sg43
g4
(g5
(S'S24'
p2399
I0
I1
tp2400
Rp2401
(I3
S'|'
p2402
NNNI24
I1
I0
tp2403
bS'Interfacial Tensio-Class'
p2404
tp2405
Rp2406
sg52
g4
(g5
(S'S1'
p2407
I0
I1
tp2408
Rp2409
(I3
S'|'
p2410
NNNI1
I1
I0
tp2411
bg914
tp2412
Rp2413
sg53
(lp2414
sbasba(iTree_Model
Tree
p2415
(dp2416
g2
(lp2417
sg26
(lp2418
sg43
g4
(g5
(S'S24'
p2419
I0
I1
tp2420
Rp2421
(I3
S'|'
p2422
NNNI24
I1
I0
tp2423
bS'Interfacial Tensio-Class'
p2424
tp2425
Rp2426
sg52
g4
(g5
(S'S1'
p2427
I0
I1
tp2428
Rp2429
(I3
S'|'
p2430
NNNI1
I1
I0
tp2431
bg914
tp2432
Rp2433
sg53
(lp2434
sba(iTree_Model
Tree
p2435
(dp2436
g2
(lp2437
sg26
(lp2438
sg43
g4
(g5
(S'S24'
p2439
I0
I1
tp2440
Rp2441
(I3
S'|'
p2442
NNNI24
I1
I0
tp2443
bS'Interfacial Tensio-Class'
p2444
tp2445
Rp2446
sg52
g4
(g5
(S'S1'
p2447
I0
I1
tp2448
Rp2449
(I3
S'|'
p2450
NNNI1
I1
I0
tp2451
bg914
tp2452
Rp2453
sg53
(lp2454
sbasbasba(iTree_Model
Tree
p2455
(dp2456
g2
(lp2457
g4
(g8
S'333333@@'
p2458
tp2459
Rp2460
ag4
(g8
S'ffffffH@'
p2461
tp2462
Rp2463
ag4
(g8
S'\xcc\xcc\xcc\xcc\xccLP@'
p2464
tp2465
Rp2466
ag4
(g8
S'ffffffT@'
p2467
tp2468
Rp2469
ag4
(g8
S'fffff\x86X@'
p2470
tp2471
Rp2472
asg26
(lp2473
g4
(g8
S'\x00\x00\x00\x00\x00\x000@'
p2474
tp2475
Rp2476
ag4
(g8
S'333333@@'
p2477
tp2478
Rp2479
ag4
(g8
S'ffffffH@'
p2480
tp2481
Rp2482
ag4
(g8
S'\xcc\xcc\xcc\xcc\xccLP@'
p2483
tp2484
Rp2485
ag4
(g8
S'ffffffT@'
p2486
tp2487
Rp2488
asg43
g4
(g5
(S'S22'
p2489
I0
I1
tp2490
Rp2491
(I3
S'|'
p2492
NNNI22
I1
I0
tp2493
bS'Breakdown Voltage (kV)'
p2494
tp2495
Rp2496
sg52
Nsg53
(lp2497
(iTree_Model
Tree
p2498
(dp2499
g2
(lp2500
g4
(g8
S'ffffff\x16@'
p2501
tp2502
Rp2503
ag4
(g8
S'ffffff$@'
p2504
tp2505
Rp2506
ag4
(g8
S'\x99\x99\x99\x99\x99\x99-@'
p2507
tp2508
Rp2509
ag4
(g8
S'ffffff3@'
p2510
tp2511
Rp2512
ag4
(g8
S'\x9a\x99\x99\x99\x99\x198@'
p2513
tp2514
Rp2515
asg26
(lp2516
g4
(g8
S'\x00\x00\x00\x00\x00\x00\xf0?'
p2517
tp2518
Rp2519
ag4
(g8
S'ffffff\x16@'
p2520
tp2521
Rp2522
ag4
(g8
S'ffffff$@'
p2523
tp2524
Rp2525
ag4
(g8
S'\x99\x99\x99\x99\x99\x99-@'
p2526
tp2527
Rp2528
ag4
(g8
S'ffffff3@'
p2529
tp2530
Rp2531
asg43
g4
(g5
(S'S28'
p2532
I0
I1
tp2533
Rp2534
(I3
S'|'
p2535
NNNI28
I1
I0
tp2536
bS'Water content measured (ppm)'
p2537
tp2538
Rp2539
sg52
Nsg53
(lp2540
(iTree_Model
Tree
p2541
(dp2542
g2
(lp2543
sg26
(lp2544
sg43
g4
(g5
(S'S24'
p2545
I0
I1
tp2546
Rp2547
(I3
S'|'
p2548
NNNI24
I1
I0
tp2549
bS'Interfacial Tensio-Class'
p2550
tp2551
Rp2552
sg52
g4
(g5
(S'S1'
p2553
I0
I1
tp2554
Rp2555
(I3
S'|'
p2556
NNNI1
I1
I0
tp2557
bg914
tp2558
Rp2559
sg53
(lp2560
sba(iTree_Model
Tree
p2561
(dp2562
g2
(lp2563
sg26
(lp2564
sg43
g4
(g5
(S'S24'
p2565
I0
I1
tp2566
Rp2567
(I3
S'|'
p2568
NNNI24
I1
I0
tp2569
bS'Interfacial Tensio-Class'
p2570
tp2571
Rp2572
sg52
g4
(g5
(S'S1'
p2573
I0
I1
tp2574
Rp2575
(I3
S'|'
p2576
NNNI1
I1
I0
tp2577
bg914
tp2578
Rp2579
sg53
(lp2580
sba(iTree_Model
Tree
p2581
(dp2582
g2
(lp2583
sg26
(lp2584
sg43
g4
(g5
(S'S24'
p2585
I0
I1
tp2586
Rp2587
(I3
S'|'
p2588
NNNI24
I1
I0
tp2589
bS'Interfacial Tensio-Class'
p2590
tp2591
Rp2592
sg52
g4
(g5
(S'S1'
p2593
I0
I1
tp2594
Rp2595
(I3
S'|'
p2596
NNNI1
I1
I0
tp2597
bg1347
tp2598
Rp2599
sg53
(lp2600
sba(iTree_Model
Tree
p2601
(dp2602
g2
(lp2603
sg26
(lp2604
sg43
g4
(g5
(S'S24'
p2605
I0
I1
tp2606
Rp2607
(I3
S'|'
p2608
NNNI24
I1
I0
tp2609
bS'Interfacial Tensio-Class'
p2610
tp2611
Rp2612
sg52
g4
(g5
(S'S1'
p2613
I0
I1
tp2614
Rp2615
(I3
S'|'
p2616
NNNI1
I1
I0
tp2617
bg115
tp2618
Rp2619
sg53
(lp2620
sba(iTree_Model
Tree
p2621
(dp2622
g2
(lp2623
sg26
(lp2624
sg43
g4
(g5
(S'S24'
p2625
I0
I1
tp2626
Rp2627
(I3
S'|'
p2628
NNNI24
I1
I0
tp2629
bS'Interfacial Tensio-Class'
p2630
tp2631
Rp2632
sg52
g4
(g5
(S'S1'
p2633
I0
I1
tp2634
Rp2635
(I3
S'|'
p2636
NNNI1
I1
I0
tp2637
bg914
tp2638
Rp2639
sg53
(lp2640
sbasba(iTree_Model
Tree
p2641
(dp2642
g2
(lp2643
sg26
(lp2644
sg43
g4
(g5
(S'S24'
p2645
I0
I1
tp2646
Rp2647
(I3
S'|'
p2648
NNNI24
I1
I0
tp2649
bS'Interfacial Tensio-Class'
p2650
tp2651
Rp2652
sg52
g4
(g5
(S'S1'
p2653
I0
I1
tp2654
Rp2655
(I3
S'|'
p2656
NNNI1
I1
I0
tp2657
bg914
tp2658
Rp2659
sg53
(lp2660
sba(iTree_Model
Tree
p2661
(dp2662
g2
(lp2663
g4
(g8
S'2\xe6\xae%\xe4\x83\x9e?'
p2664
tp2665
Rp2666
ag4
(g8
S'\xf4\xdb\xd7\x81sF\xa4?'
p2667
tp2668
Rp2669
ag4
(g8
S'\xd0D\xd8\xf0\xf4J\xa9?'
p2670
tp2671
Rp2672
ag4
(g8
S'\xac\xad\xd8_vO\xae?'
p2673
tp2674
Rp2675
ag4
(g8
S'o\x12\x83\xc0\xca\xa1\xc5?'
p2676
tp2677
Rp2678
asg26
(lp2679
g4
(g8
S'{\x14\xaeG\xe1z\x94?'
p2680
tp2681
Rp2682
ag4
(g8
S'2\xe6\xae%\xe4\x83\x9e?'
p2683
tp2684
Rp2685
ag4
(g8
S'\xf4\xdb\xd7\x81sF\xa4?'
p2686
tp2687
Rp2688
ag4
(g8
S'\xd0D\xd8\xf0\xf4J\xa9?'
p2689
tp2690
Rp2691
ag4
(g8
S'\xac\xad\xd8_vO\xae?'
p2692
tp2693
Rp2694
asg43
g4
(g5
(S'S19'
p2695
I0
I1
tp2696
Rp2697
(I3
S'|'
p2698
NNNI19
I1
I0
tp2699
bS'Dissipation Factor '
p2700
tp2701
Rp2702
sg52
Nsg53
(lp2703
(iTree_Model
Tree
p2704
(dp2705
g2
(lp2706
sg26
(lp2707
sg43
g4
(g5
(S'S24'
p2708
I0
I1
tp2709
Rp2710
(I3
S'|'
p2711
NNNI24
I1
I0
tp2712
bS'Interfacial Tensio-Class'
p2713
tp2714
Rp2715
sg52
g4
(g5
(S'S1'
p2716
I0
I1
tp2717
Rp2718
(I3
S'|'
p2719
NNNI1
I1
I0
tp2720
bg1347
tp2721
Rp2722
sg53
(lp2723
sba(iTree_Model
Tree
p2724
(dp2725
g2
(lp2726
sg26
(lp2727
sg43
g4
(g5
(S'S24'
p2728
I0
I1
tp2729
Rp2730
(I3
S'|'
p2731
NNNI24
I1
I0
tp2732
bS'Interfacial Tensio-Class'
p2733
tp2734
Rp2735
sg52
g4
(g5
(S'S1'
p2736
I0
I1
tp2737
Rp2738
(I3
S'|'
p2739
NNNI1
I1
I0
tp2740
bg914
tp2741
Rp2742
sg53
(lp2743
sba(iTree_Model
Tree
p2744
(dp2745
g2
(lp2746
sg26
(lp2747
sg43
g4
(g5
(S'S24'
p2748
I0
I1
tp2749
Rp2750
(I3
S'|'
p2751
NNNI24
I1
I0
tp2752
bS'Interfacial Tensio-Class'
p2753
tp2754
Rp2755
sg52
g4
(g5
(S'S1'
p2756
I0
I1
tp2757
Rp2758
(I3
S'|'
p2759
NNNI1
I1
I0
tp2760
bg914
tp2761
Rp2762
sg53
(lp2763
sba(iTree_Model
Tree
p2764
(dp2765
g2
(lp2766
sg26
(lp2767
sg43
g4
(g5
(S'S24'
p2768
I0
I1
tp2769
Rp2770
(I3
S'|'
p2771
NNNI24
I1
I0
tp2772
bS'Interfacial Tensio-Class'
p2773
tp2774
Rp2775
sg52
g4
(g5
(S'S1'
p2776
I0
I1
tp2777
Rp2778
(I3
S'|'
p2779
NNNI1
I1
I0
tp2780
bg914
tp2781
Rp2782
sg53
(lp2783
sba(iTree_Model
Tree
p2784
(dp2785
g2
(lp2786
sg26
(lp2787
sg43
g4
(g5
(S'S24'
p2788
I0
I1
tp2789
Rp2790
(I3
S'|'
p2791
NNNI24
I1
I0
tp2792
bS'Interfacial Tensio-Class'
p2793
tp2794
Rp2795
sg52
g4
(g5
(S'S1'
p2796
I0
I1
tp2797
Rp2798
(I3
S'|'
p2799
NNNI1
I1
I0
tp2800
bg914
tp2801
Rp2802
sg53
(lp2803
sbasba(iTree_Model
Tree
p2804
(dp2805
g2
(lp2806
g4
(g8
S'4\x116<\xbdR\xa6?'
p2807
tp2808
Rp2809
ag4
(g8
S"\xed/\xbb'\x0f\x0b\xb5?"
p2810
tp2811
Rp2812
ag4
(g8
S'@W[\xb1\xbf\xec\xbe?'
p2813
tp2814
Rp2815
ag4
(g8
S'I\xbf}\x1d8g\xc4?'
p2816
tp2817
Rp2818
ag4
(g8
S'\xe0O\x8d\x97n\x12\xd3?'
p2819
tp2820
Rp2821
asg26
(lp2822
g4
(g8
S'{\x14\xaeG\xe1zt?'
p2823
tp2824
Rp2825
ag4
(g8
S'4\x116<\xbdR\xa6?'
p2826
tp2827
Rp2828
ag4
(g8
S"\xed/\xbb'\x0f\x0b\xb5?"
p2829
tp2830
Rp2831
ag4
(g8
S'@W[\xb1\xbf\xec\xbe?'
p2832
tp2833
Rp2834
ag4
(g8
S'I\xbf}\x1d8g\xc4?'
p2835
tp2836
Rp2837
asg43
g4
(g5
(S'S28'
p2838
I0
I1
tp2839
Rp2840
(I3
S'|'
p2841
NNNI28
I1
I0
tp2842
bS'Total Acid Number (mgKOH/ g)'
p2843
tp2844
Rp2845
sg52
Nsg53
(lp2846
(iTree_Model
Tree
p2847
(dp2848
g2
(lp2849
g4
(g8
S'\x14a\xc3\xd3+e\x89?'
p2850
tp2851
Rp2852
ag4
(g8
S'\xf5\xdb\xd7\x81sF\x94?'
p2853
tp2854
Rp2855
ag4
(g8
S'a\x07\xce\x19Q\xda\x9b?'
p2856
tp2857
Rp2858
ag4
(g8
S'f\x19\xe2X\x17\xb7\xa1?'
p2859
tp2860
Rp2861
ag4
(g8
S'\x94\x18\x04V\x0e-\xc2?'
p2862
tp2863
Rp2864
asg26
(lp2865
g4
(g8
S'{\x14\xaeG\xe1zt?'
p2866
tp2867
Rp2868
ag4
(g8
S'\x14a\xc3\xd3+e\x89?'
p2869
tp2870
Rp2871
ag4
(g8
S'\xf5\xdb\xd7\x81sF\x94?'
p2872
tp2873
Rp2874
ag4
(g8
S'a\x07\xce\x19Q\xda\x9b?'
p2875
tp2876
Rp2877
ag4
(g8
S'f\x19\xe2X\x17\xb7\xa1?'
p2878
tp2879
Rp2880
asg43
g4
(g5
(S'S19'
p2881
I0
I1
tp2882
Rp2883
(I3
S'|'
p2884
NNNI19
I1
I0
tp2885
bS'Dissipation Factor '
p2886
tp2887
Rp2888
sg52
Nsg53
(lp2889
(iTree_Model
Tree
p2890
(dp2891
g2
(lp2892
sg26
(lp2893
sg43
g4
(g5
(S'S24'
p2894
I0
I1
tp2895
Rp2896
(I3
S'|'
p2897
NNNI24
I1
I0
tp2898
bS'Interfacial Tensio-Class'
p2899
tp2900
Rp2901
sg52
g4
(g5
(S'S1'
p2902
I0
I1
tp2903
Rp2904
(I3
S'|'
p2905
NNNI1
I1
I0
tp2906
bg914
tp2907
Rp2908
sg53
(lp2909
sba(iTree_Model
Tree
p2910
(dp2911
g2
(lp2912
sg26
(lp2913
sg43
g4
(g5
(S'S24'
p2914
I0
I1
tp2915
Rp2916
(I3
S'|'
p2917
NNNI24
I1
I0
tp2918
bS'Interfacial Tensio-Class'
p2919
tp2920
Rp2921
sg52
g4
(g5
(S'S1'
p2922
I0
I1
tp2923
Rp2924
(I3
S'|'
p2925
NNNI1
I1
I0
tp2926
bg1347
tp2927
Rp2928
sg53
(lp2929
sba(iTree_Model
Tree
p2930
(dp2931
g2
(lp2932
sg26
(lp2933
sg43
g4
(g5
(S'S24'
p2934
I0
I1
tp2935
Rp2936
(I3
S'|'
p2937
NNNI24
I1
I0
tp2938
bS'Interfacial Tensio-Class'
p2939
tp2940
Rp2941
sg52
g4
(g5
(S'S1'
p2942
I0
I1
tp2943
Rp2944
(I3
S'|'
p2945
NNNI1
I1
I0
tp2946
bg914
tp2947
Rp2948
sg53
(lp2949
sba(iTree_Model
Tree
p2950
(dp2951
g2
(lp2952
sg26
(lp2953
sg43
g4
(g5
(S'S24'
p2954
I0
I1
tp2955
Rp2956
(I3
S'|'
p2957
NNNI24
I1
I0
tp2958
bS'Interfacial Tensio-Class'
p2959
tp2960
Rp2961
sg52
g4
(g5
(S'S1'
p2962
I0
I1
tp2963
Rp2964
(I3
S'|'
p2965
NNNI1
I1
I0
tp2966
bg1347
tp2967
Rp2968
sg53
(lp2969
sba(iTree_Model
Tree
p2970
(dp2971
g2
(lp2972
sg26
(lp2973
sg43
g4
(g5
(S'S24'
p2974
I0
I1
tp2975
Rp2976
(I3
S'|'
p2977
NNNI24
I1
I0
tp2978
bS'Interfacial Tensio-Class'
p2979
tp2980
Rp2981
sg52
g4
(g5
(S'S1'
p2982
I0
I1
tp2983
Rp2984
(I3
S'|'
p2985
NNNI1
I1
I0
tp2986
bg914
tp2987
Rp2988
sg53
(lp2989
sbasba(iTree_Model
Tree
p2990
(dp2991
g2
(lp2992
g4
(g8
S'ffffff\x0e@'
p2993
tp2994
Rp2995
ag4
(g8
S'ffffff\x16@'
p2996
tp2997
Rp2998
ag4
(g8
S'\x9a\x99\x99\x99\x99\x99\x1d@'
p2999
tp3000
Rp3001
ag4
(g8
S'ffffff"@'
p3002
tp3003
Rp3004
ag4
(g8
S'333333&@'
p3005
tp3006
Rp3007
asg26
(lp3008
g4
(g8
S'\x00\x00\x00\x00\x00\x00\x00@'
p3009
tp3010
Rp3011
ag4
(g8
S'ffffff\x0e@'
p3012
tp3013
Rp3014
ag4
(g8
S'ffffff\x16@'
p3015
tp3016
Rp3017
ag4
(g8
S'\x9a\x99\x99\x99\x99\x99\x1d@'
p3018
tp3019
Rp3020
ag4
(g8
S'ffffff"@'
p3021
tp3022
Rp3023
asg43
g4
(g5
(S'S28'
p3024
I0
I1
tp3025
Rp3026
(I3
S'|'
p3027
NNNI28
I1
I0
tp3028
bS'Water content measured (ppm)'
p3029
tp3030
Rp3031
sg52
Nsg53
(lp3032
(iTree_Model
Tree
p3033
(dp3034
g2
(lp3035
sg26
(lp3036
sg43
g4
(g5
(S'S24'
p3037
I0
I1
tp3038
Rp3039
(I3
S'|'
p3040
NNNI24
I1
I0
tp3041
bS'Interfacial Tensio-Class'
p3042
tp3043
Rp3044
sg52
g4
(g5
(S'S1'
p3045
I0
I1
tp3046
Rp3047
(I3
S'|'
p3048
NNNI1
I1
I0
tp3049
bg914
tp3050
Rp3051
sg53
(lp3052
sba(iTree_Model
Tree
p3053
(dp3054
g2
(lp3055
sg26
(lp3056
sg43
g4
(g5
(S'S24'
p3057
I0
I1
tp3058
Rp3059
(I3
S'|'
p3060
NNNI24
I1
I0
tp3061
bS'Interfacial Tensio-Class'
p3062
tp3063
Rp3064
sg52
g4
(g5
(S'S1'
p3065
I0
I1
tp3066
Rp3067
(I3
S'|'
p3068
NNNI1
I1
I0
tp3069
bg914
tp3070
Rp3071
sg53
(lp3072
sba(iTree_Model
Tree
p3073
(dp3074
g2
(lp3075
sg26
(lp3076
sg43
g4
(g5
(S'S24'
p3077
I0
I1
tp3078
Rp3079
(I3
S'|'
p3080
NNNI24
I1
I0
tp3081
bS'Interfacial Tensio-Class'
p3082
tp3083
Rp3084
sg52
g4
(g5
(S'S1'
p3085
I0
I1
tp3086
Rp3087
(I3
S'|'
p3088
NNNI1
I1
I0
tp3089
bg914
tp3090
Rp3091
sg53
(lp3092
sba(iTree_Model
Tree
p3093
(dp3094
g2
(lp3095
sg26
(lp3096
sg43
g4
(g5
(S'S24'
p3097
I0
I1
tp3098
Rp3099
(I3
S'|'
p3100
NNNI24
I1
I0
tp3101
bS'Interfacial Tensio-Class'
p3102
tp3103
Rp3104
sg52
g4
(g5
(S'S1'
p3105
I0
I1
tp3106
Rp3107
(I3
S'|'
p3108
NNNI1
I1
I0
tp3109
bg914
tp3110
Rp3111
sg53
(lp3112
sba(iTree_Model
Tree
p3113
(dp3114
g2
(lp3115
sg26
(lp3116
sg43
g4
(g5
(S'S24'
p3117
I0
I1
tp3118
Rp3119
(I3
S'|'
p3120
NNNI24
I1
I0
tp3121
bS'Interfacial Tensio-Class'
p3122
tp3123
Rp3124
sg52
g4
(g5
(S'S1'
p3125
I0
I1
tp3126
Rp3127
(I3
S'|'
p3128
NNNI1
I1
I0
tp3129
bg914
tp3130
Rp3131
sg53
(lp3132
sbasba(iTree_Model
Tree
p3133
(dp3134
g2
(lp3135
sg26
(lp3136
sg43
g4
(g5
(S'S24'
p3137
I0
I1
tp3138
Rp3139
(I3
S'|'
p3140
NNNI24
I1
I0
tp3141
bS'Interfacial Tensio-Class'
p3142
tp3143
Rp3144
sg52
g4
(g5
(S'S1'
p3145
I0
I1
tp3146
Rp3147
(I3
S'|'
p3148
NNNI1
I1
I0
tp3149
bg914
tp3150
Rp3151
sg53
(lp3152
sba(iTree_Model
Tree
p3153
(dp3154
g2
(lp3155
sg26
(lp3156
sg43
g4
(g5
(S'S24'
p3157
I0
I1
tp3158
Rp3159
(I3
S'|'
p3160
NNNI24
I1
I0
tp3161
bS'Interfacial Tensio-Class'
p3162
tp3163
Rp3164
sg52
g4
(g5
(S'S1'
p3165
I0
I1
tp3166
Rp3167
(I3
S'|'
p3168
NNNI1
I1
I0
tp3169
bg914
tp3170
Rp3171
sg53
(lp3172
sba(iTree_Model
Tree
p3173
(dp3174
g2
(lp3175
sg26
(lp3176
sg43
g4
(g5
(S'S24'
p3177
I0
I1
tp3178
Rp3179
(I3
S'|'
p3180
NNNI24
I1
I0
tp3181
bS'Interfacial Tensio-Class'
p3182
tp3183
Rp3184
sg52
g4
(g5
(S'S1'
p3185
I0
I1
tp3186
Rp3187
(I3
S'|'
p3188
NNNI1
I1
I0
tp3189
bg914
tp3190
Rp3191
sg53
(lp3192
sbasba(iTree_Model
Tree
p3193
(dp3194
g2
(lp3195
g4
(g8
S'\x99\x99\x99\x99\x99\x99\x99?'
p3196
tp3197
Rp3198
ag4
(g8
S'\t\xd7\xa3p=\n\xa7?'
p3199
tp3200
Rp3201
ag4
(g8
S'\xa3p=\n\xd7\xa3\xb0?'
p3202
tp3203
Rp3204
ag4
(g8
S'\xc2\xf5(\\\x8f\xc2\xb5?'
p3205
tp3206
Rp3207
ag4
(g8
S'>\n\xd7\xa3p=\xca?'
p3208
tp3209
Rp3210
asg26
(lp3211
g4
(g8
S'{\x14\xaeG\xe1zt?'
p3212
tp3213
Rp3214
ag4
(g8
S'\x99\x99\x99\x99\x99\x99\x99?'
p3215
tp3216
Rp3217
ag4
(g8
S'\t\xd7\xa3p=\n\xa7?'
p3218
tp3219
Rp3220
ag4
(g8
S'\xa3p=\n\xd7\xa3\xb0?'
p3221
tp3222
Rp3223
ag4
(g8
S'\xc2\xf5(\\\x8f\xc2\xb5?'
p3224
tp3225
Rp3226
asg43
g4
(g5
(S'S19'
p3227
I0
I1
tp3228
Rp3229
(I3
S'|'
p3230
NNNI19
I1
I0
tp3231
bS'Dissipation Factor '
p3232
tp3233
Rp3234
sg52
Nsg53
(lp3235
(iTree_Model
Tree
p3236
(dp3237
g2
(lp3238
sg26
(lp3239
sg43
g4
(g5
(S'S24'
p3240
I0
I1
tp3241
Rp3242
(I3
S'|'
p3243
NNNI24
I1
I0
tp3244
bS'Interfacial Tensio-Class'
p3245
tp3246
Rp3247
sg52
g4
(g5
(S'S1'
p3248
I0
I1
tp3249
Rp3250
(I3
S'|'
p3251
NNNI1
I1
I0
tp3252
bg914
tp3253
Rp3254
sg53
(lp3255
sba(iTree_Model
Tree
p3256
(dp3257
g2
(lp3258
g4
(g8
S'\x9a\x99\x99\x99\x99\x99\x01@'
p3259
tp3260
Rp3261
ag4
(g8
S'333333\x0b@'
p3262
tp3263
Rp3264
ag4
(g8
S'ffffff\x12@'
p3265
tp3266
Rp3267
ag4
(g8
S'333333\x17@'
p3268
tp3269
Rp3270
ag4
(g8
S'ffffff\x1c@'
p3271
tp3272
Rp3273
asg26
(lp3274
g4
(g8
S'\x00\x00\x00\x00\x00\x00\xf0?'
p3275
tp3276
Rp3277
ag4
(g8
S'\x9a\x99\x99\x99\x99\x99\x01@'
p3278
tp3279
Rp3280
ag4
(g8
S'333333\x0b@'
p3281
tp3282
Rp3283
ag4
(g8
S'ffffff\x12@'
p3284
tp3285
Rp3286
ag4
(g8
S'333333\x17@'
p3287
tp3288
Rp3289
asg43
g4
(g5
(S'S28'
p3290
I0
I1
tp3291
Rp3292
(I3
S'|'
p3293
NNNI28
I1
I0
tp3294
bS'Water content measured (ppm)'
p3295
tp3296
Rp3297
sg52
Nsg53
(lp3298
(iTree_Model
Tree
p3299
(dp3300
g2
(lp3301
sg26
(lp3302
sg43
g4
(g5
(S'S24'
p3303
I0
I1
tp3304
Rp3305
(I3
S'|'
p3306
NNNI24
I1
I0
tp3307
bS'Interfacial Tensio-Class'
p3308
tp3309
Rp3310
sg52
g4
(g5
(S'S1'
p3311
I0
I1
tp3312
Rp3313
(I3
S'|'
p3314
NNNI1
I1
I0
tp3315
bg914
tp3316
Rp3317
sg53
(lp3318
sba(iTree_Model
Tree
p3319
(dp3320
g2
(lp3321
sg26
(lp3322
sg43
g4
(g5
(S'S24'
p3323
I0
I1
tp3324
Rp3325
(I3
S'|'
p3326
NNNI24
I1
I0
tp3327
bS'Interfacial Tensio-Class'
p3328
tp3329
Rp3330
sg52
g4
(g5
(S'S1'
p3331
I0
I1
tp3332
Rp3333
(I3
S'|'
p3334
NNNI1
I1
I0
tp3335
bg914
tp3336
Rp3337
sg53
(lp3338
sba(iTree_Model
Tree
p3339
(dp3340
g2
(lp3341
sg26
(lp3342
sg43
g4
(g5
(S'S24'
p3343
I0
I1
tp3344
Rp3345
(I3
S'|'
p3346
NNNI24
I1
I0
tp3347
bS'Interfacial Tensio-Class'
p3348
tp3349
Rp3350
sg52
g4
(g5
(S'S1'
p3351
I0
I1
tp3352
Rp3353
(I3
S'|'
p3354
NNNI1
I1
I0
tp3355
bg914
tp3356
Rp3357
sg53
(lp3358
sba(iTree_Model
Tree
p3359
(dp3360
g2
(lp3361
sg26
(lp3362
sg43
g4
(g5
(S'S24'
p3363
I0
I1
tp3364
Rp3365
(I3
S'|'
p3366
NNNI24
I1
I0
tp3367
bS'Interfacial Tensio-Class'
p3368
tp3369
Rp3370
sg52
g4
(g5
(S'S1'
p3371
I0
I1
tp3372
Rp3373
(I3
S'|'
p3374
NNNI1
I1
I0
tp3375
bg914
tp3376
Rp3377
sg53
(lp3378
sba(iTree_Model
Tree
p3379
(dp3380
g2
(lp3381
sg26
(lp3382
sg43
g4
(g5
(S'S24'
p3383
I0
I1
tp3384
Rp3385
(I3
S'|'
p3386
NNNI24
I1
I0
tp3387
bS'Interfacial Tensio-Class'
p3388
tp3389
Rp3390
sg52
g4
(g5
(S'S1'
p3391
I0
I1
tp3392
Rp3393
(I3
S'|'
p3394
NNNI1
I1
I0
tp3395
bg914
tp3396
Rp3397
sg53
(lp3398
sbasba(iTree_Model
Tree
p3399
(dp3400
g2
(lp3401
sg26
(lp3402
sg43
g4
(g5
(S'S24'
p3403
I0
I1
tp3404
Rp3405
(I3
S'|'
p3406
NNNI24
I1
I0
tp3407
bS'Interfacial Tensio-Class'
p3408
tp3409
Rp3410
sg52
g4
(g5
(S'S1'
p3411
I0
I1
tp3412
Rp3413
(I3
S'|'
p3414
NNNI1
I1
I0
tp3415
bg914
tp3416
Rp3417
sg53
(lp3418
sba(iTree_Model
Tree
p3419
(dp3420
g2
(lp3421
sg26
(lp3422
sg43
g4
(g5
(S'S24'
p3423
I0
I1
tp3424
Rp3425
(I3
S'|'
p3426
NNNI24
I1
I0
tp3427
bS'Interfacial Tensio-Class'
p3428
tp3429
Rp3430
sg52
g4
(g5
(S'S1'
p3431
I0
I1
tp3432
Rp3433
(I3
S'|'
p3434
NNNI1
I1
I0
tp3435
bg914
tp3436
Rp3437
sg53
(lp3438
sba(iTree_Model
Tree
p3439
(dp3440
g2
(lp3441
sg26
(lp3442
sg43
g4
(g5
(S'S24'
p3443
I0
I1
tp3444
Rp3445
(I3
S'|'
p3446
NNNI24
I1
I0
tp3447
bS'Interfacial Tensio-Class'
p3448
tp3449
Rp3450
sg52
g4
(g5
(S'S1'
p3451
I0
I1
tp3452
Rp3453
(I3
S'|'
p3454
NNNI1
I1
I0
tp3455
bg914
tp3456
Rp3457
sg53
(lp3458
sbasbasba(iTree_Model
Tree
p3459
(dp3460
g2
(lp3461
g4
(g8
S'\xb6\x84|\xd0\xb3Y\xb5?'
p3462
tp3463
Rp3464
ag4
(g8
S'\xeb\xe26\x1a\xc0[\xc0?'
p3465
tp3466
Rp3467
ag4
(g8
S'|\x83/L\xa6\n\xc6?'
p3468
tp3469
Rp3470
ag4
(g8
S'\x0c$(~\x8c\xb9\xcb?'
p3471
tp3472
Rp3473
ag4
(g8
S'\xb4\xc8v\xbe\x9f\x1a\xd7?'
p3474
tp3475
Rp3476
asg26
(lp3477
g4
(g8
S'+\x87\x16\xd9\xce\xf7\xa3?'
p3478
tp3479
Rp3480
ag4
(g8
S'\xb6\x84|\xd0\xb3Y\xb5?'
p3481
tp3482
Rp3483
ag4
(g8
S'\xeb\xe26\x1a\xc0[\xc0?'
p3484
tp3485
Rp3486
ag4
(g8
S'|\x83/L\xa6\n\xc6?'
p3487
tp3488
Rp3489
ag4
(g8
S'\x0c$(~\x8c\xb9\xcb?'
p3490
tp3491
Rp3492
asg43
g4
(g5
(S'S28'
p3493
I0
I1
tp3494
Rp3495
(I3
S'|'
p3496
NNNI28
I1
I0
tp3497
bS'Total Acid Number (mgKOH/ g)'
p3498
tp3499
Rp3500
sg52
Nsg53
(lp3501
(iTree_Model
Tree
p3502
(dp3503
g2
(lp3504
sg26
(lp3505
sg43
g4
(g5
(S'S24'
p3506
I0
I1
tp3507
Rp3508
(I3
S'|'
p3509
NNNI24
I1
I0
tp3510
bS'Interfacial Tensio-Class'
p3511
tp3512
Rp3513
sg52
g4
(g5
(S'S1'
p3514
I0
I1
tp3515
Rp3516
(I3
S'|'
p3517
NNNI1
I1
I0
tp3518
bg914
tp3519
Rp3520
sg53
(lp3521
sba(iTree_Model
Tree
p3522
(dp3523
g2
(lp3524
sg26
(lp3525
sg43
g4
(g5
(S'S24'
p3526
I0
I1
tp3527
Rp3528
(I3
S'|'
p3529
NNNI24
I1
I0
tp3530
bS'Interfacial Tensio-Class'
p3531
tp3532
Rp3533
sg52
g4
(g5
(S'S1'
p3534
I0
I1
tp3535
Rp3536
(I3
S'|'
p3537
NNNI1
I1
I0
tp3538
bg914
tp3539
Rp3540
sg53
(lp3541
sba(iTree_Model
Tree
p3542
(dp3543
g2
(lp3544
sg26
(lp3545
sg43
g4
(g5
(S'S24'
p3546
I0
I1
tp3547
Rp3548
(I3
S'|'
p3549
NNNI24
I1
I0
tp3550
bS'Interfacial Tensio-Class'
p3551
tp3552
Rp3553
sg52
g4
(g5
(S'S1'
p3554
I0
I1
tp3555
Rp3556
(I3
S'|'
p3557
NNNI1
I1
I0
tp3558
bS'N'
p3559
tp3560
Rp3561
sg53
(lp3562
sba(iTree_Model
Tree
p3563
(dp3564
g2
(lp3565
sg26
(lp3566
sg43
g4
(g5
(S'S24'
p3567
I0
I1
tp3568
Rp3569
(I3
S'|'
p3570
NNNI24
I1
I0
tp3571
bS'Interfacial Tensio-Class'
p3572
tp3573
Rp3574
sg52
g4
(g5
(S'S1'
p3575
I0
I1
tp3576
Rp3577
(I3
S'|'
p3578
NNNI1
I1
I0
tp3579
bg3559
tp3580
Rp3581
sg53
(lp3582
sba(iTree_Model
Tree
p3583
(dp3584
g2
(lp3585
sg26
(lp3586
sg43
g4
(g5
(S'S24'
p3587
I0
I1
tp3588
Rp3589
(I3
S'|'
p3590
NNNI24
I1
I0
tp3591
bS'Interfacial Tensio-Class'
p3592
tp3593
Rp3594
sg52
g4
(g5
(S'S1'
p3595
I0
I1
tp3596
Rp3597
(I3
S'|'
p3598
NNNI1
I1
I0
tp3599
bg3559
tp3600
Rp3601
sg53
(lp3602
sbasbasb.